(dp0
I10280
F0.13234187735106287
sI10301
F0.22986615344239344
sI10302
F0.16985390604496542
sI10303
F0.018948473449392024
sI10304
F0.4970518764762487
sI10305
F0.16687953809815415
sI10306
F0.09054325955734407
sI10307
F0.21721634152742536
sI10308
F0.3395853381156502
sI10309
F0.112378619543347
sI10310
F0.05978479573090716
sI10312
F-0.005511328842620956
sI10314
F0.21041028781383952
sI11354
F0.28707899571341083
sI11355
F0.238439331642026
sI11356
F0.21870352550083103
sI11357
F0.0419735806141195
sI11358
F0.21893097716735196
sI11360
F0.04776484996938151
sI11361
F0.12921004286589094
sI11363
F0.04090630740967542
sI11364
F0.06190184585775521
sI11365
F0.1996325780771586
sI11366
F1.374805353862304
sI11367
F0.37260082232525593
sI11368
F0.7872976992389117
sI11369
F0.05939987752602573
sI11370
F0.0860992039191672
sI11372
F0.9959408625667041
sI11373
F0.2806753564867466
sI11374
F0.3723733706587349
sI11375
F0.4475898871489807
sI11377
F0.1160878313358411
sI11378
F0.09259032455603183
sI11379
F0.03210567754352202
sI11385
F1.21849357011635
sI11411
F0.10765462339252901
sI11412
F0.09031580789082316
sI11413
F0.06421135508704395
sI11414
F0.32739042953372405
sI11415
F0.1625929489983378
sI11416
F0.12926253171201116
sI11417
F0.22148543434520157
sI11418
F0.2054063511503805
sI11419
F0.26596098329105056
sI11420
F0.24270842445980223
sI11421
F0.2962645437844457
sI11422
F0.13648849619455863
sI11423
F0.4309859154929578
sI11426
F0.032403114338203115
sI11427
F0.049724433557868944
sI11428
F0.08844370571253604
sI11432
F0.35844633015484195
sI11433
F0.21041028781383952
sI11434
F0.23919167176974884
sI11435
F0.30230076108826864
sI11436
F0.05889248534686377
sI10451
F0.8474674131747002
sI10452
F1.4961770623742456
sI10453
F0.7478260869565218
sI10454
F0.2534861341964832
sI10455
F0.5567141982328753
sI10456
F1.2448954597148107
sI10457
F1.7826611844982945
sI10458
F0.8957396553232438
sI10459
F0.3362960370921178
sI10460
F0.6581576415011807
sI10461
F0.3964132621817863
sI10462
F0.42395241011285095
sI10463
F0.7971656023095091
sI10464
F0.19340390167089494
sI10465
F0.12611320094479922
sI10466
F0.15234012772285888
sI10467
F0.9685591811740001
sI10468
F1.1963782696177063
sI10469
F0.33053976030093596
sI10470
F0.15087044003149325
sI10471
F0.12845770273816817
sI10472
F1.362225527075496
sI10473
F0.2850669232788031
sI10474
F0.07266205931239611
sI10475
F0.009517977429796171
sI11004
F0.2025719534598897
sI10001
F1.6645787770098848
sI10002
F2.0181611407575883
sI10003
F1.3959758551307846
sI10004
F0.3435394978567053
sI10005
F0.4061062024319829
sI10006
F0.22132796780684097
sI10007
F0.4198757763975155
sI10009
F1.5626454378444579
sI10010
F0.7171726008223254
sI10011
F1.539725308371971
sI10012
F1.1981453941037528
sI10013
F1.2995363485259375
sI10014
F1.073921791619281
sI10016
F1.6641413699588834
sI10017
F1.0256845420348173
sI10018
F0.49365759776047585
sI10019
F2.308476948648411
sI10021
F0.33477386055463204
sI10022
F0.7169276528737641
sI10023
F1.0554807103490507
sI10024
F0.8112151167876822
sI10025
F1.5191321844108123
sI10026
F2.3723208818126147
sI10027
F2.341352462601697
sI10028
F0.9094042515965355
sI10029
F2.5508354474674126
sI10030
F0.9262881637651998
sI10031
F2.708966844545533
sI10032
F3.223392529087568
sI10033
F1.9666520864316328
sI10034
F3.6431633277928435
sI10035
F1.0058262619193419
sI10036
F2.0140495144781725
sI10037
F0.35716910156591714
sI10038
F0.7959758551307846
sI10039
F0.3868078033417898
sI10040
F4.361508179511853
sI10065
F1.0543084594523662
sI10069
F0.0614994313708337
sI10075
F0.37060624617268817
sI11101
F1.1009010585250631
sI11102
F0.5897646750065612
sI11103
F1.1446067710611494
sI11104
F0.6867290700726095
sI11105
F0.44300586125448327
sI11106
F0.7717784970693725
sI11109
F0.09710436532236895
sI10128
F1.2348176012597318
sI11691
F0.2973143207068497
sI11692
F0.05486834047764849
sI11694
F0.48457702738168135
sI11201
F1.675706412387367
sI11203
F0.30737468287988806
sI11204
F0.13888548683404775
sI11205
F1.4363572740792578
sI11206
F2.5180824074884076
sI11207
F1.067780596623218
sI11208
F0.7880325430845944
sI11209
F0.4820050739217915
sI11210
F0.10226576852418859
sI11211
F3.036339777797218
sI11212
F0.16868165514828104
sI11213
F1.1808240748840868
sI11214
F0.23775697664246345
sI11215
F1.3016009098066657
sI11216
F2.8809028081532655
sI11217
F1.574122998862741
sI11218
F0.8317032630566004
sI11219
F0.3697489283527251
sI11220
F1.199317645000437
sI11221
F2.2282564954947066
sI11222
F1.0900708599422624
sI11223
F0.37452541334966316
sI11224
F0.19455865628553934
sI11225
F1.9491733006736067
sI11226
F2.2838946723821185
sI11228
F0.18015921616656455
sI11229
F-0.1393053976030093
sI11230
F0.6342752165164901
sI11231
F0.44974192983990896
sI11232
F0.5541072522089056
sI11233
F0.7473011984953196
sI11234
F0.5817688741142504
sI11235
F0.44727495407225953
sI11236
F0.22447729857405302
sI11237
F1.7862479223165073
sI11238
F2.8973143207068492
s.