(dp0
I10280
F0.02408951497310543
sI10282
F-0.03202864551179158
sI10301
F0.058857840477482375
sI10302
F0.028947368421052642
sI10303
F0.0012208355941399874
sI10304
F0.010919696147585459
sI10305
F0.08786625067824202
sI10306
F0.017464731416169294
sI10307
F0.01597144456886898
sI10308
F0.07680571108622622
sI10309
F0.02316196418882258
sI10310
F0.06667118827997831
sI10312
F0.011821758003255557
sI10314
F0.027190721649484547
sI11354
F0.05033594624860023
sI11355
F0.009807379272924587
sI11356
F-0.0007138857782754751
sI11357
F0.01779706999457406
sI11358
F0.030927835051546382
sI11360
F-0.002869540873460248
sI11361
F0.00015397536394176734
sI11362
F0.012533198054370203
sI11363
F0.009902439776212565
sI11364
F0.016039509414819006
sI11365
F0.013768312533912102
sI11366
F0.1928764945995738
sI11367
F-0.031144872490504617
sI11368
F0.10765677491601347
sI11369
F0.0006438969764837655
sI11370
F-0.003526858383071081
sI11372
F0.01803445469343464
sI11373
F0.09475083986562152
sI11374
F0.07828947368421052
sI11375
F0.08579083016820403
sI11377
F0.0727821486706457
sI11378
F0.03338465845464727
sI11379
F0.024328107502799557
sI11385
F0.2664270211611504
sI11411
F0.0012818773738469847
sI11412
F0.019316909294512886
sI11413
F0.03134098544232923
sI11414
F0.10887458006718927
sI11415
F0.03918882257189365
sI11416
F0.04292341599494474
sI11417
F0.0020550732501356515
sI11418
F0.04636462289744981
sI11419
F0.06925529028757461
sI11420
F0.050027129679869754
sI11421
F0.0606348345089528
sI11422
F0.04015192620727075
sI11423
F0.09666853303471448
sI11426
F0.020330166528194204
sI11427
F0.02385377102550191
sI11428
F0.005570205541306937
sI11429
F0.004464834013654589
sI11430
F0.0012233285917496453
sI11432
F0.07980195333695064
sI11433
F0.04500279955207168
sI11434
F0.02093054801953337
sI11435
F0.02310770482908302
sI11436
F0.022067380860016104
sI10451
F0.11569451980466633
sI10452
F0.30391345632121536
sI10453
F0.2220464725643898
sI10454
F0.052212549217931586
sI10455
F0.10706886898096307
sI10456
F0.33136869234943017
sI10457
F0.3704150841020075
sI10458
F0.1481958762886598
sI10459
F0.09248320268757002
sI10460
F0.19377373846988605
sI10461
F0.04765328269126425
sI10462
F0.06749864351600653
sI10463
F0.1588171459576777
sI10464
F0.020792544160676225
sI10465
F0.053639417693169114
sI10466
F0.0646432447097124
sI10467
F-0.011374118285404192
sI10468
F0.21947088465845463
sI10469
F0.08541779706999456
sI10470
F0.009941119098363625
sI10471
F0.0368701007838746
sI10472
F0.3795984807379274
sI10473
F0.06727594552613517
sI10474
F0.01903695408734603
sI10475
F0.02062430323299889
sI11004
F0.04703247480403137
sI11005
F-0.0025974025974025935
sI10001
F0.07246337493217578
sI10002
F0.1396703743895822
sI10003
F0.2533776451437875
sI10004
F0.011562150055991044
sI10005
F-0.002963917525773206
sI10006
F0.020128779395296753
sI10007
F0.07679055887140536
sI10009
F0.1138225718936516
sI10010
F0.0858043950081389
sI10011
F0.11467037438958233
sI10012
F0.09551003798155179
sI10013
F0.07042186652197507
sI10014
F0.130615843733044
sI10016
F-0.08908708627238195
sI10017
F0.12199538795442222
sI10018
F0.07794357026587088
sI10019
F0.1846242539338036
sI10020
F0.0014718801535070804
sI10021
F-0.0009020618556701144
sI10022
F0.006199131850244195
sI10023
F0.049430276722734666
sI10024
F0.06835322843190449
sI10025
F0.17431497558328818
sI10026
F0.4059278350515464
sI10027
F0.4487791644058599
sI10028
F0.31221513836136744
sI10029
F0.3440789473684211
sI10030
F0.2366928920238741
sI10031
F0.6670306565382527
sI10032
F0.2073928377645145
sI10033
F0.17195469343461747
sI10034
F0.5935973955507327
sI10035
F0.2644601193705914
sI10036
F0.10536489419424853
sI10037
F0.0586340206185567
sI10038
F0.01075013564839937
sI10039
F0.10867861142217247
sI10040
F0.580663320672816
sI10044
F-0.0007138857782754793
sI10065
F0.09950488334237657
sI10069
F0.014062974587425328
sI10075
F0.050162778079218644
sI11101
F0.08263700488334248
sI11102
F0.041494845360824734
sI11103
F0.12208355941399893
sI11104
F0.11059413998914816
sI11105
F0.11205236028214867
sI11106
F0.014405860010851835
sI11109
F0.017885241454150845
sI10103
F0.0
sI10111
F-0.0010926573426573432
sI10112
F2.11711223939835e-17
sI10119
F6.859373475888894e-19
sI10128
F0.27259902333152486
sI10153
F0.0
sI11691
F0.052939529675251965
sI11692
F0.009713228492136907
sI11693
F0.011584373304395013
sI11694
F0.07624580067189252
sI11697
F0.0040517075053058075
sI10162
F0.006426484907497564
sI11201
F0.21486706456863813
sI11203
F0.06341562669560498
sI11204
F0.0029028757460661876
sI11205
F0.06910607704829079
sI11206
F0.4124728703201304
sI11207
F0.1845564297341291
sI11208
F0.11248643516006517
sI11209
F0.04337357569180682
sI11210
F0.030963045912653978
sI11211
F0.6720903418339667
sI11212
F0.09015957446808516
sI11213
F0.2587154096581661
sI11214
F0.07712289744981012
sI11215
F0.15217715680954957
sI11216
F0.2980263157894737
sI11217
F0.2657013022246338
sI11218
F0.07894058600108517
sI11219
F-0.004055887140531747
sI11220
F0.29318366793271833
sI11221
F0.3530249593054802
sI11222
F0.1908776451437873
sI11223
F0.026505697232772633
sI11224
F0.061884098544232935
sI11225
F0.41123168746608796
sI11226
F0.2060702658708628
sI11228
F0.0241809052487086
sI11229
F0.08273874118285404
sI11230
F0.0351668475311991
sI11231
F0.008376288659793866
sI11232
F0.10953247480403142
sI11233
F0.13847666847531204
sI11234
F0.04192213781877371
sI11235
F0.10695876288659795
sI11236
F0.07032474804031358
sI11237
F0.2658708627238199
sI11238
F0.5816942485078676
sI11239
F-0.0028831927566104775
s.