(dp0
I10271
(lp1
(dp2
S'value'
p3
F0.0
sS'label'
p4
S'other'
p5
sasI10278
(lp6
(dp7
g3
F0.0
sg4
g5
sasI10279
(lp8
(dp9
g3
F0.0
sg4
g5
sasI10280
(lp10
(dp11
g3
I167
sg4
S'Construction'
p12
sa(dp13
g3
I83
sg4
S'Other'
p14
sa(dp15
g3
I59
sg4
S'Construction Equipment'
p16
sa(dp17
g3
I55
sg4
S'Barking Dog'
p18
sa(dp19
g3
I42
sg4
S'Engine Idling'
p20
sa(dp21
g3
I39
sg4
S'Music/Party'
p22
sa(dp23
g3
I168
sg4
g5
sasI10282
(lp24
(dp25
g3
I39
sg4
S'Noise: Boat(Engine,Music,Etc) (NR10)'
p26
sa(dp27
g3
I34
sg4
g12
sa(dp28
g3
I29
sg4
S'Jack Hammering'
p29
sa(dp30
g3
I23
sg4
S'Air condition/ventilation'
p31
sa(dp32
g3
I16
sg4
g18
sa(dp33
g3
I13
sg4
S'Engine Idling'
p34
sa(dp35
g3
I20
sg4
g5
sasI10301
(lp36
(dp37
g3
I518
sg4
g22
sa(dp38
g3
I318
sg4
g18
sa(dp39
g3
I224
sg4
g12
sa(dp40
g3
I212
sg4
S'Loud Talking'
p41
sa(dp42
g3
I185
sg4
S'Car/Truck Music'
p43
sa(dp44
g3
I89
sg4
S'Engine Idling'
p45
sa(dp46
g3
I387
sg4
g5
sasI10302
(lp47
(dp48
g3
I300
sg4
g22
sa(dp49
g3
I188
sg4
g18
sa(dp50
g3
I107
sg4
g12
sa(dp51
g3
I86
sg4
S'Loud Talking'
p52
sa(dp53
g3
I61
sg4
S'Engine Idling'
p54
sa(dp55
g3
I52
sg4
S'Car/Truck Music'
p56
sa(dp57
g3
I144
sg4
g5
sasI10303
(lp58
(dp59
g3
I260
sg4
g18
sa(dp60
g3
I161
sg4
g22
sa(dp61
g3
I134
sg4
S'Engine Idling'
p62
sa(dp63
g3
I114
sg4
S'Loud Talking'
p64
sa(dp65
g3
I80
sg4
S'Car/Truck Music'
p66
sa(dp67
g3
I34
sg4
g12
sa(dp68
g3
I151
sg4
g5
sasI10304
(lp69
(dp70
g3
I769
sg4
g22
sa(dp71
g3
I407
sg4
S'Loud Talking'
p72
sa(dp73
g3
I279
sg4
g18
sa(dp74
g3
I116
sg4
S'Car/Truck Music'
p75
sa(dp76
g3
I89
sg4
S'Engine Idling'
p77
sa(dp78
g3
I55
sg4
S'People Created Noise'
p79
sa(dp80
g3
I244
sg4
g5
sasI10305
(lp81
(dp82
g3
I398
sg4
g18
sa(dp83
g3
I346
sg4
g22
sa(dp84
g3
I219
sg4
g12
sa(dp85
g3
I147
sg4
S'Loud Talking'
p86
sa(dp87
g3
I77
sg4
g16
sa(dp88
g3
I61
sg4
S'Car/Truck Music'
p89
sa(dp90
g3
I238
sg4
g5
sasI10306
(lp91
(dp92
g3
I559
sg4
g18
sa(dp93
g3
I302
sg4
g22
sa(dp94
g3
I250
sg4
g12
sa(dp95
g3
I206
sg4
S'Loud Talking'
p96
sa(dp97
g3
I156
sg4
S'Engine Idling'
p98
sa(dp99
g3
I69
sg4
g31
sa(dp100
g3
I373
sg4
g5
sasI10307
(lp101
(dp102
g3
I467
sg4
g22
sa(dp103
g3
I118
sg4
g18
sa(dp104
g3
I65
sg4
S'Loud Talking'
p105
sa(dp106
g3
I35
sg4
g12
sa(dp107
g3
I25
sg4
S'Car/Truck Music'
p108
sa(dp109
g3
I24
sg4
S'Engine Idling'
p110
sa(dp111
g3
I55
sg4
g5
sasI10308
(lp112
(dp113
g3
I416
sg4
g18
sa(dp114
g3
I299
sg4
g22
sa(dp115
g3
I94
sg4
S'Loud Talking'
p116
sa(dp117
g3
I57
sg4
S'People Created Noise'
p118
sa(dp119
g3
I55
sg4
g12
sa(dp120
g3
I52
sg4
S'Car/Truck Music'
p121
sa(dp122
g3
I129
sg4
g5
sasI10309
(lp123
(dp124
g3
I276
sg4
g18
sa(dp125
g3
I177
sg4
g22
sa(dp126
g3
I113
sg4
g12
sa(dp127
g3
I60
sg4
S'Loud Talking'
p128
sa(dp129
g3
I53
sg4
S'Engine Idling'
p130
sa(dp131
g3
I32
sg4
S'Banging'
p132
sa(dp133
g3
I124
sg4
g5
sasI10310
(lp134
(dp135
g3
I840
sg4
g22
sa(dp136
g3
I240
sg4
S'Loud Talking'
p137
sa(dp138
g3
I227
sg4
g18
sa(dp139
g3
I192
sg4
S'People Created Noise'
p140
sa(dp141
g3
I91
sg4
S'Car/Truck Music'
p142
sa(dp143
g3
I79
sg4
g12
sa(dp144
g3
I208
sg4
g5
sasI10311
(lp145
(dp146
g3
F0.0
sg4
g5
sasI10312
(lp147
(dp148
g3
I372
sg4
g18
sa(dp149
g3
I177
sg4
g22
sa(dp150
g3
I172
sg4
S'Loud Talking'
p151
sa(dp152
g3
I137
sg4
g12
sa(dp153
g3
I114
sg4
S'People Created Noise'
p154
sa(dp155
g3
I67
sg4
S'Engine Idling'
p156
sa(dp157
g3
I234
sg4
g5
sasI10314
(lp158
(dp159
g3
I736
sg4
g18
sa(dp160
g3
I238
sg4
g22
sa(dp161
g3
I235
sg4
S'Loud Talking'
p162
sa(dp163
g3
I225
sg4
g12
sa(dp164
g3
I194
sg4
S'Engine Idling'
p165
sa(dp166
g3
I96
sg4
g16
sa(dp167
g3
I515
sg4
g5
sasI11351
(lp168
(dp169
g3
F0.0
sg4
g5
sasI11354
(lp170
(dp171
g3
I272
sg4
g22
sa(dp172
g3
I242
sg4
g12
sa(dp173
g3
I181
sg4
S'Loud Talking'
p174
sa(dp175
g3
I178
sg4
g18
sa(dp176
g3
I128
sg4
g16
sa(dp177
g3
I76
sg4
g31
sa(dp178
g3
I410
sg4
g5
sasI11355
(lp179
(dp180
g3
I480
sg4
g22
sa(dp181
g3
I371
sg4
g12
sa(dp182
g3
I285
sg4
S'Noise, Ice Cream Truck (NR4)'
p183
sa(dp184
g3
I265
sg4
g18
sa(dp185
g3
I202
sg4
S'Loud Talking'
p186
sa(dp187
g3
I187
sg4
g16
sa(dp188
g3
I483
sg4
g5
sasI11356
(lp189
(dp190
g3
I435
sg4
S'Engine Idling'
p191
sa(dp192
g3
I199
sg4
g18
sa(dp193
g3
I196
sg4
g22
sa(dp194
g3
I75
sg4
S'Loud Talking'
p195
sa(dp196
g3
I69
sg4
S'People Created Noise'
p197
sa(dp198
g3
I68
sg4
g132
sa(dp199
g3
I280
sg4
g5
sasI11357
(lp200
(dp201
g3
I181
sg4
g18
sa(dp202
g3
I177
sg4
g22
sa(dp203
g3
I144
sg4
g12
sa(dp204
g3
I111
sg4
S'Engine Idling'
p205
sa(dp206
g3
I87
sg4
S'Loud Talking'
p207
sa(dp208
g3
I65
sg4
S'Car/Truck Music'
p209
sa(dp210
g3
I338
sg4
g5
sasI11358
(lp211
(dp212
g3
I303
sg4
g18
sa(dp213
g3
I238
sg4
g22
sa(dp214
g3
I138
sg4
g12
sa(dp215
g3
I111
sg4
S'Loud Talking'
p216
sa(dp217
g3
I80
sg4
g31
sa(dp218
g3
I66
sg4
g16
sa(dp219
g3
I298
sg4
g5
sasI11359
(lp220
(dp221
g3
F0.0
sg4
g5
sasI11360
(lp222
(dp223
g3
I71
sg4
g12
sa(dp224
g3
I59
sg4
g18
sa(dp225
g3
I49
sg4
g22
sa(dp226
g3
I46
sg4
g16
sa(dp227
g3
I32
sg4
g31
sa(dp228
g3
I22
sg4
S'Loud Talking'
p229
sa(dp230
g3
I67
sg4
g5
sasI11361
(lp231
(dp232
g3
I232
sg4
g18
sa(dp233
g3
I138
sg4
g22
sa(dp234
g3
I134
sg4
g12
sa(dp235
g3
I69
sg4
S'Loud Talking'
p236
sa(dp237
g3
I46
sg4
g16
sa(dp238
g3
I40
sg4
S'Engine Idling'
p239
sa(dp240
g3
I143
sg4
g5
sasI11362
(lp241
(dp242
g3
I128
sg4
g22
sa(dp243
g3
I72
sg4
g12
sa(dp244
g3
I52
sg4
g18
sa(dp245
g3
I24
sg4
g16
sa(dp246
g3
I21
sg4
S'Loud Talking'
p247
sa(dp248
g3
I14
sg4
S'Car/Truck Horn'
p249
sa(dp250
g3
I60
sg4
g5
sasI11363
(lp251
(dp252
g3
I51
sg4
g18
sa(dp253
g3
I42
sg4
g22
sa(dp254
g3
I29
sg4
g12
sa(dp255
g3
I15
sg4
S'Noise:  lawn care equipment (NCL)'
p256
sa(dp257
g3
I14
sg4
S'Engine Idling'
p258
sa(dp259
g3
I13
sg4
S'Loud Talking'
p260
sa(dp261
g3
I46
sg4
g5
sasI11364
(lp262
(dp263
g3
I223
sg4
g18
sa(dp264
g3
I126
sg4
S'Loud Talking'
p265
sa(dp266
g3
I106
sg4
g12
sa(dp267
g3
I53
sg4
g22
sa(dp268
g3
I42
sg4
g16
sa(dp269
g3
I25
sg4
S'Engine Idling'
p270
sa(dp271
g3
I120
sg4
g5
sasI11365
(lp272
(dp273
g3
I179
sg4
g18
sa(dp274
g3
I145
sg4
g12
sa(dp275
g3
I124
sg4
S'Noise: Alarms (NR3)'
p276
sa(dp277
g3
I87
sg4
g22
sa(dp278
g3
I77
sg4
S'Loud Talking'
p279
sa(dp280
g3
I63
sg4
g16
sa(dp281
g3
I220
sg4
g5
sasI11366
(lp282
(dp283
g3
I1264
sg4
S'Noise: Alarms (NR3)'
p284
sa(dp285
g3
I153
sg4
S'Car/Truck Horn'
p286
sa(dp287
g3
I142
sg4
g18
sa(dp288
g3
I75
sg4
g22
sa(dp289
g3
I55
sg4
S'Loud Talking'
p290
sa(dp291
g3
I54
sg4
g12
sa(dp292
g3
I162
sg4
g5
sasI11367
(lp293
(dp294
g3
I429
sg4
g22
sa(dp295
g3
I204
sg4
g18
sa(dp296
g3
I198
sg4
S'Loud Talking'
p297
sa(dp298
g3
I95
sg4
g12
sa(dp299
g3
I83
sg4
S'Car/Truck Music'
p300
sa(dp301
g3
I80
sg4
S'Noise: Alarms (NR3)'
p302
sa(dp303
g3
I240
sg4
g5
sasI11368
(lp304
(dp305
g3
I1366
sg4
g22
sa(dp306
g3
I376
sg4
S'Car/Truck Music'
p307
sa(dp308
g3
I348
sg4
S'Loud Talking'
p309
sa(dp310
g3
I336
sg4
g18
sa(dp311
g3
I191
sg4
g12
sa(dp312
g3
I168
sg4
S'Noise, Ice Cream Truck (NR4)'
p313
sa(dp314
g3
I724
sg4
g5
sasI11369
(lp315
(dp316
g3
I553
sg4
g22
sa(dp317
g3
I239
sg4
S'Car/Truck Music'
p318
sa(dp319
g3
I191
sg4
g18
sa(dp320
g3
I156
sg4
S'Loud Talking'
p321
sa(dp322
g3
I134
sg4
g132
sa(dp323
g3
I117
sg4
S'Engine Idling'
p324
sa(dp325
g3
I328
sg4
g5
sasI11370
(lp326
(dp327
g3
I152
sg4
g18
sa(dp328
g3
I81
sg4
g22
sa(dp329
g3
I66
sg4
S'Loud Talking'
p330
sa(dp331
g3
I55
sg4
g12
sa(dp332
g3
I41
sg4
g16
sa(dp333
g3
I39
sg4
S'Engine Idling'
p334
sa(dp335
g3
I193
sg4
g5
sasI11371
(lp336
(dp337
g3
I1
sg4
g22
sa(dp338
g3
I0
sg4
g5
sasI11372
(lp339
(dp340
g3
I2378
sg4
g22
sa(dp341
g3
I471
sg4
S'Loud Talking'
p342
sa(dp343
g3
I309
sg4
S'Noise, Ice Cream Truck (NR4)'
p344
sa(dp345
g3
I205
sg4
g12
sa(dp346
g3
I198
sg4
g18
sa(dp347
g3
I187
sg4
S'Car/Truck Music'
p348
sa(dp349
g3
I1021
sg4
g5
sasI11373
(lp350
(dp351
g3
I825
sg4
g22
sa(dp352
g3
I470
sg4
S'Loud Talking'
p353
sa(dp354
g3
I294
sg4
S'People Created Noise'
p355
sa(dp356
g3
I247
sg4
g18
sa(dp357
g3
I195
sg4
S'Car/Truck Music'
p358
sa(dp359
g3
I190
sg4
g12
sa(dp360
g3
I666
sg4
g5
sasI11374
(lp361
(dp362
g3
I314
sg4
g18
sa(dp363
g3
I298
sg4
g12
sa(dp364
g3
I212
sg4
g22
sa(dp365
g3
I198
sg4
g31
sa(dp366
g3
I166
sg4
g16
sa(dp367
g3
I78
sg4
S'Engine Idling'
p368
sa(dp369
g3
I382
sg4
g5
sasI11375
(lp370
(dp371
g3
I719
sg4
g22
sa(dp372
g3
I517
sg4
g12
sa(dp373
g3
I478
sg4
g18
sa(dp374
g3
I369
sg4
S'Loud Talking'
p375
sa(dp376
g3
I258
sg4
g16
sa(dp377
g3
I227
sg4
g31
sa(dp378
g3
I899
sg4
g5
sasI11377
(lp379
(dp380
g3
I1709
sg4
S'Loud Talking'
p381
sa(dp382
g3
I1617
sg4
g22
sa(dp383
g3
I337
sg4
g18
sa(dp384
g3
I312
sg4
g12
sa(dp385
g3
I216
sg4
S'Car/Truck Music'
p386
sa(dp387
g3
I144
sg4
g16
sa(dp388
g3
I841
sg4
g5
sasI11378
(lp389
(dp390
g3
I391
sg4
g22
sa(dp391
g3
I283
sg4
g18
sa(dp392
g3
I170
sg4
g12
sa(dp393
g3
I121
sg4
S'Loud Talking'
p394
sa(dp395
g3
I101
sg4
S'Engine Idling'
p396
sa(dp397
g3
I69
sg4
g16
sa(dp398
g3
I346
sg4
g5
sasI11379
(lp399
(dp400
g3
I310
sg4
g18
sa(dp401
g3
I151
sg4
g12
sa(dp402
g3
I121
sg4
g22
sa(dp403
g3
I100
sg4
S'Loud Talking'
p404
sa(dp405
g3
I75
sg4
S'Engine Idling'
p406
sa(dp407
g3
I69
sg4
S'Car/Truck Music'
p408
sa(dp409
g3
I335
sg4
g5
sasI11385
(lp410
(dp411
g3
I1916
sg4
g22
sa(dp412
g3
I659
sg4
S'Loud Talking'
p413
sa(dp414
g3
I640
sg4
g18
sa(dp415
g3
I519
sg4
g12
sa(dp416
g3
I515
sg4
S'Car/Truck Music'
p417
sa(dp418
g3
I190
sg4
g16
sa(dp419
g3
I1012
sg4
g5
sasI11201
(lp420
(dp421
g3
I2157
sg4
g12
sa(dp422
g3
I1700
sg4
g22
sa(dp423
g3
I710
sg4
S'Loud Talking'
p424
sa(dp425
g3
I637
sg4
g16
sa(dp426
g3
I505
sg4
g31
sa(dp427
g3
I485
sg4
g29
sa(dp428
g3
I2351
sg4
g5
sasI11411
(lp429
(dp430
g3
I595
sg4
S'Engine Idling'
p431
sa(dp432
g3
I317
sg4
S'Noise: Private Carting Noise (NQ1)'
p433
sa(dp434
g3
I141
sg4
g132
sa(dp435
g3
I94
sg4
g22
sa(dp436
g3
I81
sg4
S'Car/Truck Horn'
p437
sa(dp438
g3
I80
sg4
S'Loud Talking'
p439
sa(dp440
g3
I163
sg4
g5
sasI11412
(lp441
(dp442
g3
I321
sg4
g22
sa(dp443
g3
I213
sg4
g18
sa(dp444
g3
I172
sg4
S'Car/Truck Music'
p445
sa(dp446
g3
I112
sg4
S'Loud Talking'
p447
sa(dp448
g3
I101
sg4
S'Engine Idling'
p449
sa(dp450
g3
I47
sg4
g31
sa(dp451
g3
I108
sg4
g5
sasI11413
(lp452
(dp453
g3
I254
sg4
g22
sa(dp454
g3
I149
sg4
S'Car/Truck Music'
p455
sa(dp456
g3
I111
sg4
g18
sa(dp457
g3
I101
sg4
S'Loud Talking'
p458
sa(dp459
g3
I98
sg4
S'Engine Idling'
p460
sa(dp461
g3
I35
sg4
g12
sa(dp462
g3
I147
sg4
g5
sasI11414
(lp463
(dp464
g3
I466
sg4
g22
sa(dp465
g3
I142
sg4
g18
sa(dp466
g3
I74
sg4
g12
sa(dp467
g3
I58
sg4
S'Loud Talking'
p468
sa(dp469
g3
I44
sg4
S'Noise, Ice Cream Truck (NR4)'
p470
sa(dp471
g3
I41
sg4
S'Engine Idling'
p472
sa(dp473
g3
I158
sg4
g5
sasI11415
(lp474
(dp475
g3
I664
sg4
S'Loud Talking'
p476
sa(dp477
g3
I517
sg4
g22
sa(dp478
g3
I205
sg4
g12
sa(dp479
g3
I177
sg4
g18
sa(dp480
g3
I98
sg4
g16
sa(dp481
g3
I57
sg4
S'Car/Truck Music'
p482
sa(dp483
g3
I234
sg4
g5
sasI11416
(lp484
(dp485
g3
I473
sg4
g22
sa(dp486
g3
I195
sg4
S'Car/Truck Music'
p487
sa(dp488
g3
I182
sg4
S'Loud Talking'
p489
sa(dp490
g3
I91
sg4
g18
sa(dp491
g3
I72
sg4
g12
sa(dp492
g3
I48
sg4
S'People Created Noise'
p493
sa(dp494
g3
I161
sg4
g5
sasI11417
(lp495
(dp496
g3
I485
sg4
g22
sa(dp497
g3
I192
sg4
S'Loud Talking'
p498
sa(dp499
g3
I114
sg4
g18
sa(dp500
g3
I111
sg4
S'Car/Truck Music'
p501
sa(dp502
g3
I76
sg4
g12
sa(dp503
g3
I53
sg4
S'People Created Noise'
p504
sa(dp505
g3
I194
sg4
g5
sasI11418
(lp506
(dp507
g3
I843
sg4
g22
sa(dp508
g3
I242
sg4
S'Car/Truck Music'
p509
sa(dp510
g3
I191
sg4
g18
sa(dp511
g3
I180
sg4
S'Loud Talking'
p512
sa(dp513
g3
I108
sg4
g12
sa(dp514
g3
I95
sg4
S'Engine Idling'
p515
sa(dp516
g3
I293
sg4
g5
sasI11419
(lp517
(dp518
g3
I783
sg4
g22
sa(dp519
g3
I452
sg4
S'Car/Truck Music'
p520
sa(dp521
g3
I130
sg4
g12
sa(dp522
g3
I107
sg4
S'Loud Talking'
p523
sa(dp524
g3
I82
sg4
S'Engine Idling'
p525
sa(dp526
g3
I81
sg4
g18
sa(dp527
g3
I290
sg4
g5
sasI11420
(lp528
(dp529
g3
I615
sg4
g22
sa(dp530
g3
I303
sg4
S'Car/Truck Music'
p531
sa(dp532
g3
I177
sg4
S'Loud Talking'
p533
sa(dp534
g3
I140
sg4
g18
sa(dp535
g3
I126
sg4
S'People Created Noise'
p536
sa(dp537
g3
I110
sg4
g12
sa(dp538
g3
I270
sg4
g5
sasI11421
(lp539
(dp540
g3
I703
sg4
g22
sa(dp541
g3
I289
sg4
S'Car/Truck Music'
p542
sa(dp543
g3
I285
sg4
g18
sa(dp544
g3
I215
sg4
S'Loud Talking'
p545
sa(dp546
g3
I173
sg4
S'People Created Noise'
p547
sa(dp548
g3
I75
sg4
g12
sa(dp549
g3
I333
sg4
g5
sasI11422
(lp550
(dp551
g3
I235
sg4
g22
sa(dp552
g3
I114
sg4
g18
sa(dp553
g3
I66
sg4
S'Loud Talking'
p554
sa(dp555
g3
I47
sg4
S'Engine Idling'
p556
sa(dp557
g3
I46
sg4
S'Car/Truck Music'
p558
sa(dp559
g3
I39
sg4
g12
sa(dp560
g3
I94
sg4
g5
sasI11423
(lp561
(dp562
g3
I529
sg4
g22
sa(dp563
g3
I240
sg4
g132
sa(dp564
g3
I131
sg4
S'Car/Truck Music'
p565
sa(dp566
g3
I89
sg4
g18
sa(dp567
g3
I77
sg4
S'Loud Talking'
p568
sa(dp569
g3
I68
sg4
g12
sa(dp570
g3
I153
sg4
g5
sasI11424
(lp571
(dp572
g3
F0.0
sg4
g5
sasI11425
(lp573
(dp574
g3
F0.0
sg4
g5
sasI11426
(lp575
(dp576
g3
I109
sg4
g22
sa(dp577
g3
I104
sg4
g18
sa(dp578
g3
I43
sg4
S'Loud Talking'
p579
sa(dp580
g3
I40
sg4
g12
sa(dp581
g3
I23
sg4
g16
sa(dp582
g3
I18
sg4
S'Car/Truck Music'
p583
sa(dp584
g3
I82
sg4
g5
sasI11427
(lp585
(dp586
g3
I71
sg4
g18
sa(dp587
g3
I68
sg4
g12
sa(dp588
g3
I58
sg4
g22
sa(dp589
g3
I46
sg4
S'Car/Truck Music'
p590
sa(dp591
g3
I31
sg4
g16
sa(dp592
g3
I26
sg4
S'Noise: Alarms (NR3)'
p593
sa(dp594
g3
I99
sg4
g5
sasI11428
(lp595
(dp596
g3
I113
sg4
g22
sa(dp597
g3
I55
sg4
S'Loud Talking'
p598
sa(dp599
g3
I52
sg4
g18
sa(dp600
g3
I51
sg4
g12
sa(dp601
g3
I46
sg4
S'Car/Truck Music'
p602
sa(dp603
g3
I45
sg4
S'Engine Idling'
p604
sa(dp605
g3
I114
sg4
g5
sasI11429
(lp606
(dp607
g3
I100
sg4
g22
sa(dp608
g3
I88
sg4
S'Car/Truck Music'
p609
sa(dp610
g3
I85
sg4
S'Loud Talking'
p611
sa(dp612
g3
I72
sg4
g18
sa(dp613
g3
I38
sg4
S'Engine Idling'
p614
sa(dp615
g3
I25
sg4
g12
sa(dp616
g3
I43
sg4
g5
sasI11430
(lp617
(dp618
g3
I4
sg4
S'People Created Noise'
p619
sa(dp620
g3
I1
sg4
g12
sa(dp621
g3
I0
sg4
g5
sasI11432
(lp622
(dp623
g3
I743
sg4
g22
sa(dp624
g3
I609
sg4
S'Loud Talking'
p625
sa(dp626
g3
I235
sg4
S'Car/Truck Music'
p627
sa(dp628
g3
I153
sg4
g12
sa(dp629
g3
I152
sg4
g18
sa(dp630
g3
I97
sg4
g16
sa(dp631
g3
I464
sg4
g5
sasI11433
(lp632
(dp633
g3
I473
sg4
g22
sa(dp634
g3
I147
sg4
S'Car/Truck Music'
p635
sa(dp636
g3
I134
sg4
g18
sa(dp637
g3
I128
sg4
S'Loud Talking'
p638
sa(dp639
g3
I60
sg4
S'Engine Idling'
p640
sa(dp641
g3
I35
sg4
S'People Created Noise'
p642
sa(dp643
g3
I126
sg4
g5
sasI11434
(lp644
(dp645
g3
I686
sg4
g22
sa(dp646
g3
I254
sg4
S'Car/Truck Music'
p647
sa(dp648
g3
I224
sg4
g18
sa(dp649
g3
I205
sg4
S'Loud Talking'
p650
sa(dp651
g3
I93
sg4
S'Engine Idling'
p652
sa(dp653
g3
I91
sg4
g12
sa(dp654
g3
I222
sg4
g5
sasI11435
(lp655
(dp656
g3
I666
sg4
g22
sa(dp657
g3
I225
sg4
g18
sa(dp658
g3
I194
sg4
g12
sa(dp659
g3
I192
sg4
S'Car/Truck Music'
p660
sa(dp661
g3
I174
sg4
S'Loud Talking'
p662
sa(dp663
g3
I75
sg4
g16
sa(dp664
g3
I396
sg4
g5
sasI11436
(lp665
(dp666
g3
I114
sg4
g22
sa(dp667
g3
I87
sg4
S'Car/Truck Music'
p668
sa(dp669
g3
I47
sg4
S'Engine Idling'
p670
sa(dp671
g3
I45
sg4
S'Loud Talking'
p672
sa(dp673
g3
I44
sg4
g18
sa(dp674
g3
I24
sg4
S'People Created Noise'
p675
sa(dp676
g3
I36
sg4
g5
sasI11451
(lp677
(dp678
g3
F0.0
sg4
g5
sasI10451
(lp679
(dp680
g3
I1486
sg4
g22
sa(dp681
g3
I503
sg4
S'Car/Truck Music'
p682
sa(dp683
g3
I422
sg4
S'Loud Talking'
p684
sa(dp685
g3
I160
sg4
S'Noise, Ice Cream Truck (NR4)'
p686
sa(dp687
g3
I110
sg4
S'People Created Noise'
p688
sa(dp689
g3
I98
sg4
g12
sa(dp690
g3
I354
sg4
g5
sasI10452
(lp691
(dp692
g3
I2322
sg4
g22
sa(dp693
g3
I1185
sg4
S'Car/Truck Music'
p694
sa(dp695
g3
I1008
sg4
S'Loud Talking'
p696
sa(dp697
g3
I158
sg4
g18
sa(dp698
g3
I138
sg4
S'People Created Noise'
p699
sa(dp700
g3
I86
sg4
S'Engine Idling'
p701
sa(dp702
g3
I267
sg4
g5
sasI10453
(lp703
(dp704
g3
I1802
sg4
g22
sa(dp705
g3
I975
sg4
S'Car/Truck Music'
p706
sa(dp707
g3
I553
sg4
S'Loud Talking'
p708
sa(dp709
g3
I130
sg4
g18
sa(dp710
g3
I112
sg4
g12
sa(dp711
g3
I108
sg4
S'People Created Noise'
p712
sa(dp713
g3
I254
sg4
g5
sasI10454
(lp714
(dp715
g3
I597
sg4
g22
sa(dp716
g3
I186
sg4
S'Car/Truck Music'
p717
sa(dp718
g3
I180
sg4
S'Loud Talking'
p719
sa(dp720
g3
I110
sg4
g18
sa(dp721
g3
I66
sg4
g12
sa(dp722
g3
I50
sg4
S'Noise, Ice Cream Truck (NR4)'
p723
sa(dp724
g3
I141
sg4
g5
sasI10455
(lp725
(dp726
g3
I856
sg4
g22
sa(dp727
g3
I315
sg4
S'Loud Talking'
p728
sa(dp729
g3
I233
sg4
S'Car/Truck Music'
p730
sa(dp731
g3
I71
sg4
g12
sa(dp732
g3
I67
sg4
g18
sa(dp733
g3
I63
sg4
S'People Created Noise'
p734
sa(dp735
g3
I135
sg4
g5
sasI10456
(lp736
(dp737
g3
I1793
sg4
g22
sa(dp738
g3
I1178
sg4
S'Loud Talking'
p739
sa(dp740
g3
I719
sg4
S'Car/Truck Music'
p741
sa(dp742
g3
I203
sg4
g18
sa(dp743
g3
I148
sg4
S'People Created Noise'
p744
sa(dp745
g3
I131
sg4
g12
sa(dp746
g3
I282
sg4
g5
sasI10457
(lp747
(dp748
g3
I2274
sg4
g22
sa(dp749
g3
I1222
sg4
S'Car/Truck Music'
p750
sa(dp751
g3
I650
sg4
S'Loud Talking'
p752
sa(dp753
g3
I112
sg4
g18
sa(dp754
g3
I101
sg4
g12
sa(dp755
g3
I67
sg4
S'Engine Idling'
p756
sa(dp757
g3
I288
sg4
g5
sasI10458
(lp758
(dp759
g3
I2040
sg4
g22
sa(dp760
g3
I914
sg4
S'Car/Truck Music'
p761
sa(dp762
g3
I870
sg4
S'Loud Talking'
p763
sa(dp764
g3
I242
sg4
g18
sa(dp765
g3
I165
sg4
g12
sa(dp766
g3
I139
sg4
S'Engine Idling'
p767
sa(dp768
g3
I486
sg4
g5
sasI10459
(lp769
(dp770
g3
I1120
sg4
S'Loud Talking'
p771
sa(dp772
g3
I931
sg4
g22
sa(dp773
g3
I392
sg4
S'Car/Truck Music'
p774
sa(dp775
g3
I207
sg4
g18
sa(dp776
g3
I87
sg4
S'People Created Noise'
p777
sa(dp778
g3
I61
sg4
g12
sa(dp779
g3
I175
sg4
g5
sasI10460
(lp780
(dp781
g3
I975
sg4
g22
sa(dp782
g3
I468
sg4
S'Car/Truck Music'
p783
sa(dp784
g3
I422
sg4
S'Loud Talking'
p785
sa(dp786
g3
I126
sg4
g18
sa(dp787
g3
I81
sg4
g12
sa(dp788
g3
I74
sg4
S'People Created Noise'
p789
sa(dp790
g3
I282
sg4
g5
sasI10461
(lp791
(dp792
g3
I558
sg4
g22
sa(dp793
g3
I431
sg4
g18
sa(dp794
g3
I256
sg4
S'Loud Talking'
p795
sa(dp796
g3
I157
sg4
g12
sa(dp797
g3
I131
sg4
S'Car/Truck Music'
p798
sa(dp799
g3
I81
sg4
g132
sa(dp800
g3
I464
sg4
g5
sasI10462
(lp801
(dp802
g3
I848
sg4
g22
sa(dp803
g3
I415
sg4
S'Loud Talking'
p804
sa(dp805
g3
I352
sg4
S'Car/Truck Music'
p806
sa(dp807
g3
I254
sg4
g18
sa(dp808
g3
I167
sg4
g12
sa(dp809
g3
I119
sg4
S'Noise, Ice Cream Truck (NR4)'
p810
sa(dp811
g3
I426
sg4
g5
sasI10463
(lp812
(dp813
g3
I957
sg4
g22
sa(dp814
g3
I716
sg4
S'Loud Talking'
p815
sa(dp816
g3
I353
sg4
S'Car/Truck Music'
p817
sa(dp818
g3
I333
sg4
g12
sa(dp819
g3
I311
sg4
g18
sa(dp820
g3
I289
sg4
S'Noise, Ice Cream Truck (NR4)'
p821
sa(dp822
g3
I929
sg4
g5
sasI10464
(lp823
(dp824
g3
I293
sg4
g22
sa(dp825
g3
I154
sg4
S'Car/Truck Music'
p826
sa(dp827
g3
I127
sg4
S'Loud Talking'
p828
sa(dp829
g3
I107
sg4
g18
sa(dp830
g3
I29
sg4
S'Engine Idling'
p831
sa(dp832
g3
I25
sg4
g132
sa(dp833
g3
I87
sg4
g5
sasI10465
(lp834
(dp835
g3
I564
sg4
g22
sa(dp836
g3
I457
sg4
g18
sa(dp837
g3
I209
sg4
S'Loud Talking'
p838
sa(dp839
g3
I109
sg4
S'Car/Truck Music'
p840
sa(dp841
g3
I105
sg4
g12
sa(dp842
g3
I51
sg4
S'Engine Idling'
p843
sa(dp844
g3
I207
sg4
g5
sasI10466
(lp845
(dp846
g3
I696
sg4
g22
sa(dp847
g3
I255
sg4
S'Car/Truck Music'
p848
sa(dp849
g3
I236
sg4
S'Loud Talking'
p850
sa(dp851
g3
I181
sg4
S'Engine Idling'
p852
sa(dp853
g3
I179
sg4
g18
sa(dp854
g3
I63
sg4
g12
sa(dp855
g3
I291
sg4
g5
sasI10467
(lp856
(dp857
g3
I2428
sg4
g22
sa(dp858
g3
I1571
sg4
S'Loud Talking'
p859
sa(dp860
g3
I1126
sg4
S'Car/Truck Music'
p861
sa(dp862
g3
I518
sg4
S'Noise, Ice Cream Truck (NR4)'
p863
sa(dp864
g3
I332
sg4
g18
sa(dp865
g3
I213
sg4
g12
sa(dp866
g3
I762
sg4
g5
sasI10468
(lp867
(dp868
g3
I1863
sg4
g22
sa(dp869
g3
I895
sg4
S'Car/Truck Music'
p870
sa(dp871
g3
I540
sg4
S'Loud Talking'
p872
sa(dp873
g3
I144
sg4
g18
sa(dp874
g3
I139
sg4
g12
sa(dp875
g3
I94
sg4
S'People Created Noise'
p876
sa(dp877
g3
I328
sg4
g5
sasI10469
(lp878
(dp879
g3
I630
sg4
g22
sa(dp880
g3
I363
sg4
g18
sa(dp881
g3
I322
sg4
S'Loud Talking'
p882
sa(dp883
g3
I304
sg4
S'Car/Truck Music'
p884
sa(dp885
g3
I133
sg4
g12
sa(dp886
g3
I116
sg4
S'Engine Idling'
p887
sa(dp888
g3
I419
sg4
g5
sasI10470
(lp889
(dp890
g3
I228
sg4
g22
sa(dp891
g3
I105
sg4
S'Loud Talking'
p892
sa(dp893
g3
I78
sg4
g18
sa(dp894
g3
I69
sg4
S'Car/Truck Music'
p895
sa(dp896
g3
I52
sg4
g12
sa(dp897
g3
I41
sg4
S'People Created Noise'
p898
sa(dp899
g3
I125
sg4
g5
sasI10471
(lp900
(dp901
g3
I308
sg4
g22
sa(dp902
g3
I154
sg4
g18
sa(dp903
g3
I103
sg4
S'Loud Talking'
p904
sa(dp905
g3
I93
sg4
g12
sa(dp906
g3
I66
sg4
g16
sa(dp907
g3
I49
sg4
S'Car/Truck Music'
p908
sa(dp909
g3
I169
sg4
g5
sasI10472
(lp910
(dp911
g3
I1809
sg4
S'Loud Talking'
p912
sa(dp913
g3
I1219
sg4
g22
sa(dp914
g3
I641
sg4
S'Car/Truck Music'
p915
sa(dp916
g3
I298
sg4
S'People Created Noise'
p917
sa(dp918
g3
I163
sg4
g18
sa(dp919
g3
I104
sg4
g12
sa(dp920
g3
I285
sg4
g5
sasI10473
(lp921
(dp922
g3
I592
sg4
g22
sa(dp923
g3
I310
sg4
S'Car/Truck Music'
p924
sa(dp925
g3
I236
sg4
S'Loud Talking'
p926
sa(dp927
g3
I234
sg4
g18
sa(dp928
g3
I82
sg4
S'Engine Idling'
p929
sa(dp930
g3
I76
sg4
g12
sa(dp931
g3
I191
sg4
g5
sasI10474
(lp932
(dp933
g3
I216
sg4
g22
sa(dp934
g3
I107
sg4
S'Car/Truck Music'
p935
sa(dp936
g3
I76
sg4
S'Loud Talking'
p937
sa(dp938
g3
I51
sg4
g18
sa(dp939
g3
I33
sg4
S'Engine Idling'
p940
sa(dp941
g3
I19
sg4
g12
sa(dp942
g3
I63
sg4
g5
sasI10475
(lp943
(dp944
g3
I82
sg4
g22
sa(dp945
g3
I71
sg4
S'Loud Talking'
p946
sa(dp947
g3
I23
sg4
g12
sa(dp948
g3
I22
sg4
g31
sa(dp949
g3
I19
sg4
S'Noise: Manufacturing Noise (NK1)'
p950
sa(dp951
g3
I18
sg4
S'Engine Idling'
p952
sa(dp953
g3
I52
sg4
g5
sasI11004
(lp954
(dp955
g3
I167
sg4
S'Loud Talking'
p956
sa(dp957
g3
I144
sg4
g22
sa(dp958
g3
I57
sg4
g18
sa(dp959
g3
I55
sg4
S'Noise, Ice Cream Truck (NR4)'
p960
sa(dp961
g3
I28
sg4
g12
sa(dp962
g3
I14
sg4
g16
sa(dp963
g3
I52
sg4
g5
sasI11005
(lp964
(dp965
g3
I8
sg4
S'Noise:  lawn care equipment (NCL)'
p966
sa(dp967
g3
I2
sg4
g16
sa(dp968
g3
I0
sg4
g5
sasI11223
(lp969
(dp970
g3
I960
sg4
g22
sa(dp971
g3
I943
sg4
S'Car/Truck Horn'
p972
sa(dp973
g3
I400
sg4
g18
sa(dp974
g3
I338
sg4
S'Loud Talking'
p975
sa(dp976
g3
I247
sg4
g12
sa(dp977
g3
I143
sg4
g31
sa(dp978
g3
I641
sg4
g5
sasI10001
(lp979
(dp980
g3
I2316
sg4
g12
sa(dp981
g3
I1689
sg4
g22
sa(dp982
g3
I660
sg4
g16
sa(dp983
g3
I489
sg4
S'Loud Talking'
p984
sa(dp985
g3
I464
sg4
g29
sa(dp986
g3
I334
sg4
g31
sa(dp987
g3
I1161
sg4
g5
sasI10002
(lp988
(dp989
g3
I5880
sg4
g22
sa(dp990
g3
I1740
sg4
S'Loud Talking'
p991
sa(dp992
g3
I1625
sg4
g12
sa(dp993
g3
I778
sg4
g16
sa(dp994
g3
I474
sg4
S'Car/Truck Music'
p995
sa(dp996
g3
I461
sg4
g29
sa(dp997
g3
I2093
sg4
g5
sasI10003
(lp998
(dp999
g3
I5260
sg4
g22
sa(dp1000
g3
I2111
sg4
g12
sa(dp1001
g3
I1560
sg4
S'Loud Talking'
p1002
sa(dp1003
g3
I939
sg4
g31
sa(dp1004
g3
I905
sg4
g16
sa(dp1005
g3
I708
sg4
g29
sa(dp1006
g3
I2410
sg4
g5
sasI10004
(lp1007
(dp1008
g3
I416
sg4
g12
sa(dp1009
g3
I182
sg4
g22
sa(dp1010
g3
I112
sg4
S'Loud Talking'
p1011
sa(dp1012
g3
I98
sg4
g29
sa(dp1013
g3
I88
sg4
g16
sa(dp1014
g3
I64
sg4
S'Noise, Ice Cream Truck (NR4)'
p1015
sa(dp1016
g3
I286
sg4
g5
sasI10005
(lp1017
(dp1018
g3
I856
sg4
g12
sa(dp1019
g3
I486
sg4
g22
sa(dp1020
g3
I234
sg4
g29
sa(dp1021
g3
I213
sg4
S'Loud Talking'
p1022
sa(dp1023
g3
I140
sg4
g16
sa(dp1024
g3
I76
sg4
S'Car/Truck Horn'
p1025
sa(dp1026
g3
I332
sg4
g5
sasI10006
(lp1027
(dp1028
g3
I688
sg4
g12
sa(dp1029
g3
I227
sg4
g22
sa(dp1030
g3
I218
sg4
g29
sa(dp1031
g3
I115
sg4
g16
sa(dp1032
g3
I87
sg4
S'Loud Talking'
p1033
sa(dp1034
g3
I49
sg4
g31
sa(dp1035
g3
I124
sg4
g5
sasI10007
(lp1036
(dp1037
g3
I999
sg4
g12
sa(dp1038
g3
I589
sg4
g22
sa(dp1039
g3
I324
sg4
g29
sa(dp1040
g3
I216
sg4
g16
sa(dp1041
g3
I170
sg4
S'Loud Talking'
p1042
sa(dp1043
g3
I66
sg4
S'Engine Idling'
p1044
sa(dp1045
g3
I248
sg4
g5
sasI10009
(lp1046
(dp1047
g3
I5894
sg4
g22
sa(dp1048
g3
I1695
sg4
S'Loud Talking'
p1049
sa(dp1050
g3
I1459
sg4
g12
sa(dp1051
g3
I637
sg4
S'Car/Truck Music'
p1052
sa(dp1053
g3
I612
sg4
g16
sa(dp1054
g3
I514
sg4
g31
sa(dp1055
g3
I1925
sg4
g5
sasI10010
(lp1056
(dp1057
g3
I1316
sg4
g12
sa(dp1058
g3
I981
sg4
g22
sa(dp1059
g3
I465
sg4
g16
sa(dp1060
g3
I451
sg4
S'Loud Talking'
p1061
sa(dp1062
g3
I348
sg4
g31
sa(dp1063
g3
I288
sg4
g29
sa(dp1064
g3
I977
sg4
g5
sasI10011
(lp1065
(dp1066
g3
I3385
sg4
g22
sa(dp1067
g3
I2151
sg4
g12
sa(dp1068
g3
I909
sg4
S'Loud Talking'
p1069
sa(dp1070
g3
I837
sg4
g31
sa(dp1071
g3
I836
sg4
g16
sa(dp1072
g3
I513
sg4
g29
sa(dp1073
g3
I2364
sg4
g5
sasI10012
(lp1074
(dp1075
g3
I4080
sg4
g22
sa(dp1076
g3
I1260
sg4
g12
sa(dp1077
g3
I1086
sg4
S'Loud Talking'
p1078
sa(dp1079
g3
I669
sg4
g31
sa(dp1080
g3
I407
sg4
g16
sa(dp1081
g3
I293
sg4
S'Car/Truck Horn'
p1082
sa(dp1083
g3
I1605
sg4
g5
sasI10013
(lp1084
(dp1085
g3
I2358
sg4
g22
sa(dp1086
g3
I2195
sg4
g12
sa(dp1087
g3
I735
sg4
S'Loud Talking'
p1088
sa(dp1089
g3
I636
sg4
g16
sa(dp1090
g3
I607
sg4
g31
sa(dp1091
g3
I568
sg4
g29
sa(dp1092
g3
I1682
sg4
g5
sasI10014
(lp1093
(dp1094
g3
I3956
sg4
g22
sa(dp1095
g3
I1336
sg4
g12
sa(dp1096
g3
I1201
sg4
S'Loud Talking'
p1097
sa(dp1098
g3
I592
sg4
g31
sa(dp1099
g3
I587
sg4
g16
sa(dp1100
g3
I304
sg4
g29
sa(dp1101
g3
I1660
sg4
g5
sasI10016
(lp1102
(dp1103
g3
I3439
sg4
g12
sa(dp1104
g3
I1946
sg4
g22
sa(dp1105
g3
I1056
sg4
S'Loud Talking'
p1106
sa(dp1107
g3
I880
sg4
g29
sa(dp1108
g3
I872
sg4
g16
sa(dp1109
g3
I704
sg4
g31
sa(dp1110
g3
I1721
sg4
g5
sasI10017
(lp1111
(dp1112
g3
I1047
sg4
g22
sa(dp1113
g3
I1035
sg4
g12
sa(dp1114
g3
I901
sg4
S'Loud Talking'
p1115
sa(dp1116
g3
I342
sg4
g16
sa(dp1117
g3
I338
sg4
g31
sa(dp1118
g3
I317
sg4
g29
sa(dp1119
g3
I711
sg4
g5
sasI10018
(lp1120
(dp1121
g3
I898
sg4
g22
sa(dp1122
g3
I693
sg4
g12
sa(dp1123
g3
I308
sg4
g16
sa(dp1124
g3
I298
sg4
g29
sa(dp1125
g3
I241
sg4
S'Loud Talking'
p1126
sa(dp1127
g3
I118
sg4
g31
sa(dp1128
g3
I444
sg4
g5
sasI10019
(lp1129
(dp1130
g3
I3915
sg4
g22
sa(dp1131
g3
I2883
sg4
g12
sa(dp1132
g3
I1000
sg4
g16
sa(dp1133
g3
I826
sg4
g29
sa(dp1134
g3
I668
sg4
g31
sa(dp1135
g3
I617
sg4
S'Loud Talking'
p1136
sa(dp1137
g3
I1725
sg4
g5
sasI10020
(lp1138
(dp1139
g3
I25
sg4
g22
sa(dp1140
g3
I9
sg4
S'Loud Talking'
p1141
sa(dp1142
g3
I7
sg4
g12
sa(dp1143
g3
I5
sg4
g31
sa(dp1144
g3
I3
sg4
g29
sa(dp1145
g3
I2
sg4
g16
sa(dp1146
g3
I1
sg4
g5
sasI10021
(lp1147
(dp1148
g3
I1438
sg4
g12
sa(dp1149
g3
I749
sg4
g22
sa(dp1150
g3
I606
sg4
g16
sa(dp1151
g3
I391
sg4
g29
sa(dp1152
g3
I364
sg4
S'Loud Talking'
p1153
sa(dp1154
g3
I292
sg4
g31
sa(dp1155
g3
I867
sg4
g5
sasI10022
(lp1156
(dp1157
g3
I1798
sg4
g12
sa(dp1158
g3
I1208
sg4
g22
sa(dp1159
g3
I691
sg4
g16
sa(dp1160
g3
I640
sg4
g29
sa(dp1161
g3
I500
sg4
S'Loud Talking'
p1162
sa(dp1163
g3
I333
sg4
g31
sa(dp1164
g3
I1342
sg4
g5
sasI10023
(lp1165
(dp1166
g3
I1743
sg4
g12
sa(dp1167
g3
I1489
sg4
g22
sa(dp1168
g3
I761
sg4
g16
sa(dp1169
g3
I678
sg4
g31
sa(dp1170
g3
I443
sg4
S'Loud Talking'
p1171
sa(dp1172
g3
I386
sg4
g29
sa(dp1173
g3
I1728
sg4
g5
sasI10024
(lp1174
(dp1175
g3
I1361
sg4
g22
sa(dp1176
g3
I1343
sg4
g12
sa(dp1177
g3
I693
sg4
g31
sa(dp1178
g3
I628
sg4
g16
sa(dp1179
g3
I540
sg4
S'Loud Talking'
p1180
sa(dp1181
g3
I422
sg4
S'Engine Idling'
p1182
sa(dp1183
g3
I1778
sg4
g5
sasI10025
(lp1184
(dp1185
g3
I3806
sg4
g22
sa(dp1186
g3
I1533
sg4
S'Loud Talking'
p1187
sa(dp1188
g3
I1428
sg4
g12
sa(dp1189
g3
I860
sg4
g16
sa(dp1190
g3
I731
sg4
g31
sa(dp1191
g3
I651
sg4
S'Car/Truck Music'
p1192
sa(dp1193
g3
I2759
sg4
g5
sasI10026
(lp1194
(dp1195
g3
I2972
sg4
g22
sa(dp1196
g3
I1605
sg4
S'Loud Talking'
p1197
sa(dp1198
g3
I974
sg4
S'Car/Truck Music'
p1199
sa(dp1200
g3
I522
sg4
g12
sa(dp1201
g3
I350
sg4
S'People Created Noise'
p1202
sa(dp1203
g3
I236
sg4
S'Engine Idling'
p1204
sa(dp1205
g3
I927
sg4
g5
sasI10027
(lp1206
(dp1207
g3
I3959
sg4
g22
sa(dp1208
g3
I1575
sg4
S'Loud Talking'
p1209
sa(dp1210
g3
I941
sg4
S'Car/Truck Music'
p1211
sa(dp1212
g3
I690
sg4
g12
sa(dp1213
g3
I291
sg4
S'People Created Noise'
p1214
sa(dp1215
g3
I280
sg4
g16
sa(dp1216
g3
I1532
sg4
g5
sasI10028
(lp1217
(dp1218
g3
I1588
sg4
g12
sa(dp1219
g3
I1249
sg4
g22
sa(dp1220
g3
I514
sg4
g16
sa(dp1221
g3
I435
sg4
S'Loud Talking'
p1222
sa(dp1223
g3
I357
sg4
g31
sa(dp1224
g3
I332
sg4
g29
sa(dp1225
g3
I1146
sg4
g5
sasI10029
(lp1226
(dp1227
g3
I4850
sg4
g22
sa(dp1228
g3
I1273
sg4
S'Loud Talking'
p1229
sa(dp1230
g3
I598
sg4
g12
sa(dp1231
g3
I540
sg4
S'Car/Truck Music'
p1232
sa(dp1233
g3
I455
sg4
S'People Created Noise'
p1234
sa(dp1235
g3
I307
sg4
g18
sa(dp1236
g3
I1302
sg4
g5
sasI10030
(lp1237
(dp1238
g3
I1609
sg4
g22
sa(dp1239
g3
I753
sg4
S'Loud Talking'
p1240
sa(dp1241
g3
I380
sg4
S'Car/Truck Music'
p1242
sa(dp1243
g3
I168
sg4
g12
sa(dp1244
g3
I111
sg4
g18
sa(dp1245
g3
I94
sg4
g16
sa(dp1246
g3
I404
sg4
g5
sasI10031
(lp1247
(dp1248
g3
I4926
sg4
g22
sa(dp1249
g3
I2396
sg4
S'Loud Talking'
p1250
sa(dp1251
g3
I1551
sg4
S'Car/Truck Music'
p1252
sa(dp1253
g3
I432
sg4
S'People Created Noise'
p1254
sa(dp1255
g3
I419
sg4
g12
sa(dp1256
g3
I287
sg4
g18
sa(dp1257
g3
I900
sg4
g5
sasI10032
(lp1258
(dp1259
g3
I5260
sg4
g22
sa(dp1260
g3
I2434
sg4
S'Loud Talking'
p1261
sa(dp1262
g3
I1872
sg4
S'Car/Truck Music'
p1263
sa(dp1264
g3
I874
sg4
S'People Created Noise'
p1265
sa(dp1266
g3
I520
sg4
g12
sa(dp1267
g3
I267
sg4
g18
sa(dp1268
g3
I1255
sg4
g5
sasI10033
(lp1269
(dp1270
g3
I4171
sg4
g22
sa(dp1271
g3
I1188
sg4
S'Loud Talking'
p1272
sa(dp1273
g3
I1028
sg4
S'Car/Truck Music'
p1274
sa(dp1275
g3
I442
sg4
g12
sa(dp1276
g3
I324
sg4
S'People Created Noise'
p1277
sa(dp1278
g3
I281
sg4
g18
sa(dp1279
g3
I941
sg4
g5
sasI10034
(lp1280
(dp1281
g3
I6302
sg4
g22
sa(dp1282
g3
I1462
sg4
S'Car/Truck Music'
p1283
sa(dp1284
g3
I943
sg4
S'Loud Talking'
p1285
sa(dp1286
g3
I294
sg4
g12
sa(dp1287
g3
I276
sg4
S'Noise, Ice Cream Truck (NR4)'
p1288
sa(dp1289
g3
I261
sg4
S'People Created Noise'
p1290
sa(dp1291
g3
I1218
sg4
g5
sasI10035
(lp1292
(dp1293
g3
I1759
sg4
g22
sa(dp1294
g3
I746
sg4
S'Loud Talking'
p1295
sa(dp1296
g3
I422
sg4
S'Car/Truck Music'
p1297
sa(dp1298
g3
I297
sg4
g12
sa(dp1299
g3
I121
sg4
S'Engine Idling'
p1300
sa(dp1301
g3
I119
sg4
S'Noise: Alarms (NR3)'
p1302
sa(dp1303
g3
I665
sg4
g5
sasI10036
(lp1304
(dp1305
g3
I2789
sg4
g22
sa(dp1306
g3
I1839
sg4
g12
sa(dp1307
g3
I1139
sg4
S'Loud Talking'
p1308
sa(dp1309
g3
I511
sg4
g29
sa(dp1310
g3
I456
sg4
g16
sa(dp1311
g3
I252
sg4
S'Engine Idling'
p1312
sa(dp1313
g3
I1013
sg4
g5
sasI10037
(lp1314
(dp1315
g3
I683
sg4
g22
sa(dp1316
g3
I328
sg4
S'Loud Talking'
p1317
sa(dp1318
g3
I137
sg4
S'Car/Truck Music'
p1319
sa(dp1320
g3
I122
sg4
g12
sa(dp1321
g3
I78
sg4
g31
sa(dp1322
g3
I76
sg4
g16
sa(dp1323
g3
I182
sg4
g5
sasI10038
(lp1324
(dp1325
g3
I1996
sg4
g12
sa(dp1326
g3
I627
sg4
g22
sa(dp1327
g3
I586
sg4
g16
sa(dp1328
g3
I579
sg4
g29
sa(dp1329
g3
I339
sg4
S'Loud Talking'
p1330
sa(dp1331
g3
I134
sg4
S'Noise: Private Carting Noise (NQ1)'
p1332
sa(dp1333
g3
I625
sg4
g5
sasI10039
(lp1334
(dp1335
g3
I941
sg4
g22
sa(dp1336
g3
I650
sg4
S'Loud Talking'
p1337
sa(dp1338
g3
I272
sg4
S'Car/Truck Music'
p1339
sa(dp1340
g3
I156
sg4
g18
sa(dp1341
g3
I146
sg4
g12
sa(dp1342
g3
I88
sg4
g16
sa(dp1343
g3
I334
sg4
g5
sasI10040
(lp1344
(dp1345
g3
I5576
sg4
g22
sa(dp1346
g3
I1747
sg4
S'Car/Truck Music'
p1347
sa(dp1348
g3
I1506
sg4
S'Loud Talking'
p1349
sa(dp1350
g3
I403
sg4
S'Car/Truck Horn'
p1351
sa(dp1352
g3
I317
sg4
S'Noise, Ice Cream Truck (NR4)'
p1353
sa(dp1354
g3
I261
sg4
S'Engine Idling'
p1355
sa(dp1356
g3
I1283
sg4
g5
sasI10044
(lp1357
(dp1358
g3
I42
sg4
g18
sa(dp1359
g3
I36
sg4
g12
sa(dp1360
g3
I22
sg4
g16
sa(dp1361
g3
I14
sg4
g22
sa(dp1362
g3
I10
sg4
S'Other'
p1363
sa(dp1364
g3
I8
sg4
S'Noise: Manufacturing Noise (NK1)'
p1365
sa(dp1366
g3
I22
sg4
g5
sasI10065
(lp1367
(dp1368
g3
I1227
sg4
g12
sa(dp1369
g3
I690
sg4
S'Car/Truck Horn'
p1370
sa(dp1371
g3
I585
sg4
g22
sa(dp1372
g3
I453
sg4
g16
sa(dp1373
g3
I341
sg4
g31
sa(dp1374
g3
I293
sg4
g29
sa(dp1375
g3
I1043
sg4
g5
sasI10069
(lp1376
(dp1377
g3
I89
sg4
g12
sa(dp1378
g3
I39
sg4
g31
sa(dp1379
g3
I28
sg4
g22
sa(dp1380
g3
I22
sg4
S'Loud Talking'
p1381
sa(dp1382
g3
I21
sg4
g16
sa(dp1383
g3
I11
sg4
S'Noise: Alarms (NR3)'
p1384
sa(dp1385
g3
I45
sg4
g5
sasI10075
(lp1386
(dp1387
g3
I691
sg4
g12
sa(dp1388
g3
I344
sg4
g22
sa(dp1389
g3
I263
sg4
g132
sa(dp1390
g3
I248
sg4
g16
sa(dp1391
g3
I245
sg4
g31
sa(dp1392
g3
I213
sg4
S'Loud Talking'
p1393
sa(dp1394
g3
I769
sg4
g5
sasI11101
(lp1395
(dp1396
g3
I1244
sg4
g22
sa(dp1397
g3
I680
sg4
g12
sa(dp1398
g3
I398
sg4
S'Loud Talking'
p1399
sa(dp1400
g3
I252
sg4
g16
sa(dp1401
g3
I251
sg4
S'Car/Truck Horn'
p1402
sa(dp1403
g3
I165
sg4
g18
sa(dp1404
g3
I1002
sg4
g5
sasI11102
(lp1405
(dp1406
g3
I1206
sg4
g22
sa(dp1407
g3
I400
sg4
g12
sa(dp1408
g3
I322
sg4
S'Loud Talking'
p1409
sa(dp1410
g3
I274
sg4
g18
sa(dp1411
g3
I144
sg4
g16
sa(dp1412
g3
I130
sg4
S'Engine Idling'
p1413
sa(dp1414
g3
I712
sg4
g5
sasI11103
(lp1415
(dp1416
g3
I2672
sg4
g22
sa(dp1417
g3
I607
sg4
S'Loud Talking'
p1418
sa(dp1419
g3
I306
sg4
g12
sa(dp1420
g3
I216
sg4
g18
sa(dp1421
g3
I196
sg4
g31
sa(dp1422
g3
I149
sg4
g16
sa(dp1423
g3
I680
sg4
g5
sasI11104
(lp1424
(dp1425
g3
I702
sg4
g22
sa(dp1426
g3
I394
sg4
g12
sa(dp1427
g3
I272
sg4
g18
sa(dp1428
g3
I263
sg4
S'Loud Talking'
p1429
sa(dp1430
g3
I110
sg4
S'Noise: Alarms (NR3)'
p1431
sa(dp1432
g3
I102
sg4
g16
sa(dp1433
g3
I576
sg4
g5
sasI11105
(lp1434
(dp1435
g3
I859
sg4
g22
sa(dp1436
g3
I438
sg4
S'Loud Talking'
p1437
sa(dp1438
g3
I361
sg4
g18
sa(dp1439
g3
I279
sg4
g12
sa(dp1440
g3
I166
sg4
S'Car/Truck Music'
p1441
sa(dp1442
g3
I128
sg4
S'Engine Idling'
p1443
sa(dp1444
g3
I542
sg4
g5
sasI11106
(lp1445
(dp1446
g3
I2569
sg4
g22
sa(dp1447
g3
I580
sg4
S'Loud Talking'
p1448
sa(dp1449
g3
I397
sg4
g12
sa(dp1450
g3
I328
sg4
g18
sa(dp1451
g3
I163
sg4
g16
sa(dp1452
g3
I157
sg4
g31
sa(dp1453
g3
I896
sg4
g5
sasI11109
(lp1454
(dp1455
g3
I85
sg4
g12
sa(dp1456
g3
I56
sg4
g22
sa(dp1457
g3
I46
sg4
S'Loud Talking'
p1458
sa(dp1459
g3
I22
sg4
g16
sa(dp1460
g3
I21
sg4
g18
sa(dp1461
g3
I14
sg4
S'Noise, Ice Cream Truck (NR4)'
p1462
sa(dp1463
g3
I54
sg4
g5
sasI10103
(lp1464
(dp1465
g3
I1
sg4
g16
sa(dp1466
g3
I0
sg4
g5
sasI10110
(lp1467
(dp1468
g3
F0.0
sg4
g5
sasI10111
(lp1469
(dp1470
g3
I2
sg4
g22
sa(dp1471
g3
I1
sg4
S'Car/Truck Horn'
p1472
sa(dp1473
g3
I0
sg4
g5
sasI10112
(lp1474
(dp1475
g3
I1
sg4
g22
sa(dp1476
g3
I0
sg4
g5
sasI10115
(lp1477
(dp1478
g3
F0.0
sg4
g5
sasI10119
(lp1479
(dp1480
g3
I1
sg4
g22
sa(dp1481
g3
I0
sg4
g5
sasI10128
(lp1482
(dp1483
g3
I1682
sg4
g12
sa(dp1484
g3
I937
sg4
g22
sa(dp1485
g3
I733
sg4
g16
sa(dp1486
g3
I460
sg4
g29
sa(dp1487
g3
I435
sg4
g31
sa(dp1488
g3
I423
sg4
g18
sa(dp1489
g3
I1504
sg4
g5
sasI10152
(lp1490
(dp1491
g3
F0.0
sg4
g5
sasI10153
(lp1492
(dp1493
g3
I6
sg4
g22
sa(dp1494
g3
I1
sg4
S'Car/Truck Horn'
p1495
sa(dp1496
g3
I0
sg4
g5
sasI10154
(lp1497
(dp1498
g3
F0.0
sg4
g5
sasI11691
(lp1499
(dp1500
g3
I246
sg4
g22
sa(dp1501
g3
I171
sg4
g18
sa(dp1502
g3
I160
sg4
S'Loud Talking'
p1503
sa(dp1504
g3
I135
sg4
S'Car/Truck Music'
p1505
sa(dp1506
g3
I78
sg4
g12
sa(dp1507
g3
I59
sg4
S'Engine Idling'
p1508
sa(dp1509
g3
I168
sg4
g5
sasI11692
(lp1510
(dp1511
g3
I142
sg4
g22
sa(dp1512
g3
I71
sg4
g18
sa(dp1513
g3
I57
sg4
g12
sa(dp1514
g3
I56
sg4
S'Loud Talking'
p1515
sa(dp1516
g3
I37
sg4
S'Car/Truck Music'
p1517
sa(dp1518
g3
I19
sg4
g16
sa(dp1519
g3
I45
sg4
g5
sasI11693
(lp1520
(dp1521
g3
I346
sg4
g22
sa(dp1522
g3
I131
sg4
S'Loud Talking'
p1523
sa(dp1524
g3
I83
sg4
g18
sa(dp1525
g3
I65
sg4
g12
sa(dp1526
g3
I51
sg4
g132
sa(dp1527
g3
I45
sg4
S'Car/Truck Music'
p1528
sa(dp1529
g3
I147
sg4
g5
sasI11694
(lp1530
(dp1531
g3
I327
sg4
S'Loud Talking'
p1532
sa(dp1533
g3
I295
sg4
g22
sa(dp1534
g3
I176
sg4
g18
sa(dp1535
g3
I94
sg4
g12
sa(dp1536
g3
I52
sg4
S'Car/Truck Music'
p1537
sa(dp1538
g3
I43
sg4
g16
sa(dp1539
g3
I126
sg4
g5
sasI11697
(lp1540
(dp1541
g3
I7
sg4
g22
sa(dp1542
g3
I5
sg4
S'Noise: Boat(Engine,Music,Etc) (NR10)'
p1543
sa(dp1544
g3
I2
sg4
g12
sa(dp1545
g3
I1
sg4
S'21 Collection Truck Noise'
p1546
sa(dp1547
g3
I0
sg4
g5
sasI10162
(lp1548
(dp1549
g3
I18
sg4
g132
sa(dp1550
g3
I8
sg4
g12
sa(dp1551
g3
I6
sg4
g31
sa(dp1552
g3
I5
sg4
g16
sa(dp1553
g3
I4
sg4
g29
sa(dp1554
g3
I2
sg4
S'Car/Truck Horn'
p1555
sa(dp1556
g3
I1
sg4
g5
sasI10165
(lp1557
(dp1558
g3
F0.0
sg4
g5
sasI10167
(lp1559
(dp1560
g3
F0.0
sg4
g5
sasI10168
(lp1561
(dp1562
g3
F0.0
sg4
g5
sasI10169
(lp1563
(dp1564
g3
F0.0
sg4
g5
sasI10170
(lp1565
(dp1566
g3
F0.0
sg4
g5
sasI10171
(lp1567
(dp1568
g3
F0.0
sg4
g5
sasI10172
(lp1569
(dp1570
g3
F0.0
sg4
g5
sasI10173
(lp1571
(dp1572
g3
F0.0
sg4
g5
sasI10174
(lp1573
(dp1574
g3
F0.0
sg4
g5
sasI10177
(lp1575
(dp1576
g3
F0.0
sg4
g5
sasI11203
(lp1577
(dp1578
g3
I1894
sg4
g22
sa(dp1579
g3
I509
sg4
S'Car/Truck Music'
p1580
sa(dp1581
g3
I339
sg4
S'Loud Talking'
p1582
sa(dp1583
g3
I133
sg4
g18
sa(dp1584
g3
I126
sg4
S'Engine Idling'
p1585
sa(dp1586
g3
I125
sg4
g12
sa(dp1587
g3
I298
sg4
g5
sasI11204
(lp1588
(dp1589
g3
I446
sg4
g22
sa(dp1590
g3
I389
sg4
S'Loud Talking'
p1591
sa(dp1592
g3
I275
sg4
g18
sa(dp1593
g3
I261
sg4
g12
sa(dp1594
g3
I153
sg4
S'Car/Truck Horn'
p1595
sa(dp1596
g3
I131
sg4
g16
sa(dp1597
g3
I551
sg4
g5
sasI11205
(lp1598
(dp1599
g3
I2374
sg4
g22
sa(dp1600
g3
I527
sg4
g12
sa(dp1601
g3
I487
sg4
S'Loud Talking'
p1602
sa(dp1603
g3
I304
sg4
S'Car/Truck Music'
p1604
sa(dp1605
g3
I247
sg4
g18
sa(dp1606
g3
I206
sg4
S'Engine Idling'
p1607
sa(dp1608
g3
I1079
sg4
g5
sasI11206
(lp1609
(dp1610
g3
I4627
sg4
g22
sa(dp1611
g3
I1115
sg4
S'Loud Talking'
p1612
sa(dp1613
g3
I795
sg4
S'Car/Truck Music'
p1614
sa(dp1615
g3
I658
sg4
g12
sa(dp1616
g3
I334
sg4
S'Engine Idling'
p1617
sa(dp1618
g3
I329
sg4
g18
sa(dp1619
g3
I1123
sg4
g5
sasI11207
(lp1620
(dp1621
g3
I1607
sg4
g22
sa(dp1622
g3
I603
sg4
S'Car/Truck Music'
p1623
sa(dp1624
g3
I376
sg4
S'Loud Talking'
p1625
sa(dp1626
g3
I209
sg4
g18
sa(dp1627
g3
I181
sg4
g132
sa(dp1628
g3
I161
sg4
g12
sa(dp1629
g3
I552
sg4
g5
sasI11208
(lp1630
(dp1631
g3
I1623
sg4
g22
sa(dp1632
g3
I904
sg4
S'Car/Truck Music'
p1633
sa(dp1634
g3
I428
sg4
S'Loud Talking'
p1635
sa(dp1636
g3
I236
sg4
g18
sa(dp1637
g3
I160
sg4
S'People Created Noise'
p1638
sa(dp1639
g3
I111
sg4
S'Engine Idling'
p1640
sa(dp1641
g3
I432
sg4
g5
sasI11209
(lp1642
(dp1643
g3
I1449
sg4
g22
sa(dp1644
g3
I669
sg4
g18
sa(dp1645
g3
I655
sg4
S'Loud Talking'
p1646
sa(dp1647
g3
I523
sg4
g12
sa(dp1648
g3
I253
sg4
g31
sa(dp1649
g3
I191
sg4
g16
sa(dp1650
g3
I974
sg4
g5
sasI11210
(lp1651
(dp1652
g3
I661
sg4
g22
sa(dp1653
g3
I310
sg4
S'Loud Talking'
p1654
sa(dp1655
g3
I237
sg4
S'Car/Truck Music'
p1656
sa(dp1657
g3
I156
sg4
g12
sa(dp1658
g3
I90
sg4
S'People Created Noise'
p1659
sa(dp1660
g3
I89
sg4
g16
sa(dp1661
g3
I452
sg4
g5
sasI11211
(lp1662
(dp1663
g3
I6925
sg4
g22
sa(dp1664
g3
I2169
sg4
S'Loud Talking'
p1665
sa(dp1666
g3
I1525
sg4
S'Car/Truck Music'
p1667
sa(dp1668
g3
I1263
sg4
g12
sa(dp1669
g3
I715
sg4
S'Engine Idling'
p1670
sa(dp1671
g3
I650
sg4
S'Noise: Manufacturing Noise (NK1)'
p1672
sa(dp1673
g3
I2917
sg4
g5
sasI11212
(lp1674
(dp1675
g3
I837
sg4
g22
sa(dp1676
g3
I371
sg4
S'Car/Truck Music'
p1677
sa(dp1678
g3
I250
sg4
S'Loud Talking'
p1679
sa(dp1680
g3
I196
sg4
g18
sa(dp1681
g3
I117
sg4
S'Engine Idling'
p1682
sa(dp1683
g3
I84
sg4
S'People Created Noise'
p1684
sa(dp1685
g3
I204
sg4
g5
sasI11213
(lp1686
(dp1687
g3
I1556
sg4
g22
sa(dp1688
g3
I572
sg4
S'Loud Talking'
p1689
sa(dp1690
g3
I445
sg4
S'Car/Truck Music'
p1691
sa(dp1692
g3
I275
sg4
g18
sa(dp1693
g3
I207
sg4
g12
sa(dp1694
g3
I121
sg4
g16
sa(dp1695
g3
I475
sg4
g5
sasI11214
(lp1696
(dp1697
g3
I636
sg4
g22
sa(dp1698
g3
I358
sg4
g12
sa(dp1699
g3
I285
sg4
g18
sa(dp1700
g3
I264
sg4
S'Loud Talking'
p1701
sa(dp1702
g3
I182
sg4
g16
sa(dp1703
g3
I130
sg4
S'Car/Truck Music'
p1704
sa(dp1705
g3
I724
sg4
g5
sasI11215
(lp1706
(dp1707
g3
I2102
sg4
g22
sa(dp1708
g3
I1105
sg4
g12
sa(dp1709
g3
I944
sg4
S'Loud Talking'
p1710
sa(dp1711
g3
I615
sg4
g18
sa(dp1712
g3
I410
sg4
S'Engine Idling'
p1713
sa(dp1714
g3
I398
sg4
g31
sa(dp1715
g3
I2015
sg4
g5
sasI11216
(lp1716
(dp1717
g3
I3704
sg4
g22
sa(dp1718
g3
I1256
sg4
S'Loud Talking'
p1719
sa(dp1720
g3
I604
sg4
S'Car/Truck Music'
p1721
sa(dp1722
g3
I596
sg4
g18
sa(dp1723
g3
I579
sg4
g12
sa(dp1724
g3
I232
sg4
g16
sa(dp1725
g3
I1054
sg4
g5
sasI11217
(lp1726
(dp1727
g3
I3234
sg4
g22
sa(dp1728
g3
I1354
sg4
g12
sa(dp1729
g3
I872
sg4
S'Loud Talking'
p1730
sa(dp1731
g3
I428
sg4
g16
sa(dp1732
g3
I321
sg4
g29
sa(dp1733
g3
I311
sg4
S'Car/Truck Music'
p1734
sa(dp1735
g3
I1892
sg4
g5
sasI11218
(lp1736
(dp1737
g3
I1533
sg4
g22
sa(dp1738
g3
I762
sg4
S'Loud Talking'
p1739
sa(dp1740
g3
I472
sg4
g12
sa(dp1741
g3
I291
sg4
g18
sa(dp1742
g3
I232
sg4
g16
sa(dp1743
g3
I197
sg4
S'Car/Truck Music'
p1744
sa(dp1745
g3
I1002
sg4
g5
sasI11219
(lp1746
(dp1747
g3
I558
sg4
g22
sa(dp1748
g3
I247
sg4
g12
sa(dp1749
g3
I223
sg4
S'Loud Talking'
p1750
sa(dp1751
g3
I165
sg4
S'Car/Truck Music'
p1752
sa(dp1753
g3
I132
sg4
S'Car/Truck Horn'
p1754
sa(dp1755
g3
I127
sg4
g18
sa(dp1756
g3
I603
sg4
g5
sasI11220
(lp1757
(dp1758
g3
I2223
sg4
g22
sa(dp1759
g3
I662
sg4
S'Loud Talking'
p1760
sa(dp1761
g3
I473
sg4
S'Car/Truck Music'
p1762
sa(dp1763
g3
I456
sg4
S'Noise, Ice Cream Truck (NR4)'
p1764
sa(dp1765
g3
I340
sg4
g12
sa(dp1766
g3
I259
sg4
g18
sa(dp1767
g3
I1091
sg4
g5
sasI11221
(lp1768
(dp1769
g3
I2502
sg4
g22
sa(dp1770
g3
I1032
sg4
S'Car/Truck Music'
p1771
sa(dp1772
g3
I886
sg4
S'Loud Talking'
p1773
sa(dp1774
g3
I652
sg4
g18
sa(dp1775
g3
I544
sg4
g12
sa(dp1776
g3
I323
sg4
S'People Created Noise'
p1777
sa(dp1778
g3
I827
sg4
g5
sasI11222
(lp1779
(dp1780
g3
I1817
sg4
g22
sa(dp1781
g3
I945
sg4
g12
sa(dp1782
g3
I715
sg4
S'Loud Talking'
p1783
sa(dp1784
g3
I414
sg4
S'Engine Idling'
p1785
sa(dp1786
g3
I330
sg4
g16
sa(dp1787
g3
I295
sg4
g18
sa(dp1788
g3
I1180
sg4
g5
sasI10199
(lp1789
(dp1790
g3
F0.0
sg4
g5
sasI11224
(lp1791
(dp1792
g3
I596
sg4
g22
sa(dp1793
g3
I206
sg4
g18
sa(dp1794
g3
I188
sg4
S'Loud Talking'
p1795
sa(dp1796
g3
I179
sg4
g12
sa(dp1797
g3
I92
sg4
g16
sa(dp1798
g3
I85
sg4
S'Car/Truck Music'
p1799
sa(dp1800
g3
I280
sg4
g5
sasI11225
(lp1801
(dp1802
g3
I2637
sg4
g22
sa(dp1803
g3
I808
sg4
S'Loud Talking'
p1804
sa(dp1805
g3
I737
sg4
S'Car/Truck Music'
p1806
sa(dp1807
g3
I392
sg4
g18
sa(dp1808
g3
I376
sg4
g12
sa(dp1809
g3
I134
sg4
S'People Created Noise'
p1810
sa(dp1811
g3
I533
sg4
g5
sasI11226
(lp1812
(dp1813
g3
I4179
sg4
g22
sa(dp1814
g3
I1480
sg4
S'Loud Talking'
p1815
sa(dp1816
g3
I1065
sg4
S'Car/Truck Music'
p1817
sa(dp1818
g3
I377
sg4
g12
sa(dp1819
g3
I294
sg4
g18
sa(dp1820
g3
I214
sg4
S'Noise, Ice Cream Truck (NR4)'
p1821
sa(dp1822
g3
I1240
sg4
g5
sasI11228
(lp1823
(dp1824
g3
I244
sg4
g22
sa(dp1825
g3
I182
sg4
g18
sa(dp1826
g3
I166
sg4
g12
sa(dp1827
g3
I88
sg4
S'Loud Talking'
p1828
sa(dp1829
g3
I64
sg4
g16
sa(dp1830
g3
I58
sg4
g31
sa(dp1831
g3
I252
sg4
g5
sasI11229
(lp1832
(dp1833
g3
I779
sg4
S'Engine Idling'
p1834
sa(dp1835
g3
I506
sg4
g18
sa(dp1836
g3
I402
sg4
g22
sa(dp1837
g3
I400
sg4
g12
sa(dp1838
g3
I322
sg4
S'Loud Talking'
p1839
sa(dp1840
g3
I198
sg4
g31
sa(dp1841
g3
I740
sg4
g5
sasI11230
(lp1842
(dp1843
g3
I763
sg4
g22
sa(dp1844
g3
I760
sg4
S'Loud Talking'
p1845
sa(dp1846
g3
I383
sg4
g12
sa(dp1847
g3
I283
sg4
g18
sa(dp1848
g3
I277
sg4
g31
sa(dp1849
g3
I254
sg4
S'Car/Truck Horn'
p1850
sa(dp1851
g3
I939
sg4
g5
sasI11231
(lp1852
(dp1853
g3
I944
sg4
g22
sa(dp1854
g3
I723
sg4
g12
sa(dp1855
g3
I498
sg4
S'Other'
p1856
sa(dp1857
g3
I398
sg4
g16
sa(dp1858
g3
I330
sg4
S'Loud Talking'
p1859
sa(dp1860
g3
I257
sg4
S'Engine Idling'
p1861
sa(dp1862
g3
I1277
sg4
g5
sasI11232
(lp1863
(dp1864
g3
I1366
sg4
g22
sa(dp1865
g3
I315
sg4
S'Noise, Ice Cream Truck (NR4)'
p1866
sa(dp1867
g3
I298
sg4
S'Loud Talking'
p1868
sa(dp1869
g3
I233
sg4
S'Car/Truck Music'
p1870
sa(dp1871
g3
I167
sg4
g12
sa(dp1872
g3
I150
sg4
g18
sa(dp1873
g3
I434
sg4
g5
sasI11233
(lp1874
(dp1875
g3
I1684
sg4
g22
sa(dp1876
g3
I751
sg4
S'Car/Truck Music'
p1877
sa(dp1878
g3
I522
sg4
S'Loud Talking'
p1879
sa(dp1880
g3
I317
sg4
g18
sa(dp1881
g3
I196
sg4
g12
sa(dp1882
g3
I114
sg4
g16
sa(dp1883
g3
I483
sg4
g5
sasI11234
(lp1884
(dp1885
g3
I1482
sg4
g22
sa(dp1886
g3
I485
sg4
g18
sa(dp1887
g3
I297
sg4
S'Car/Truck Horn'
p1888
sa(dp1889
g3
I292
sg4
g12
sa(dp1890
g3
I282
sg4
S'Loud Talking'
p1891
sa(dp1892
g3
I190
sg4
S'Engine Idling'
p1893
sa(dp1894
g3
I774
sg4
g5
sasI11235
(lp1895
(dp1896
g3
I815
sg4
g22
sa(dp1897
g3
I690
sg4
g12
sa(dp1898
g3
I427
sg4
S'Loud Talking'
p1899
sa(dp1900
g3
I398
sg4
g31
sa(dp1901
g3
I359
sg4
g18
sa(dp1902
g3
I306
sg4
g16
sa(dp1903
g3
I988
sg4
g5
sasI11236
(lp1904
(dp1905
g3
I810
sg4
g22
sa(dp1906
g3
I277
sg4
S'Car/Truck Music'
p1907
sa(dp1908
g3
I241
sg4
S'Loud Talking'
p1909
sa(dp1910
g3
I223
sg4
g18
sa(dp1911
g3
I120
sg4
S'People Created Noise'
p1912
sa(dp1913
g3
I106
sg4
S'Engine Idling'
p1914
sa(dp1915
g3
I203
sg4
g5
sasI11237
(lp1916
(dp1917
g3
I3103
sg4
g22
sa(dp1918
g3
I1020
sg4
S'Car/Truck Music'
p1919
sa(dp1920
g3
I715
sg4
S'Loud Talking'
p1921
sa(dp1922
g3
I410
sg4
g12
sa(dp1923
g3
I212
sg4
g18
sa(dp1924
g3
I207
sg4
S'People Created Noise'
p1925
sa(dp1926
g3
I988
sg4
g5
sasI11238
(lp1927
(dp1928
g3
I5141
sg4
g22
sa(dp1929
g3
I1774
sg4
S'Loud Talking'
p1930
sa(dp1931
g3
I1187
sg4
g12
sa(dp1932
g3
I914
sg4
S'Car/Truck Music'
p1933
sa(dp1934
g3
I492
sg4
g16
sa(dp1935
g3
I431
sg4
g18
sa(dp1936
g3
I1951
sg4
g5
sasI11239
(lp1937
(dp1938
g3
I37
sg4
g12
sa(dp1939
g3
I15
sg4
g31
sa(dp1940
g3
I10
sg4
g22
sa(dp1941
g3
I7
sg4
S'Car/Truck Horn'
p1942
sa(dp1943
g3
I6
sg4
g29
sa(dp1944
g3
I5
sg4
g16
sa(dp1945
g3
I10
sg4
g5
sas.