(dp0
I10280
I15
sI10282
I7
sI10301
I17
sI10303
I6
sI10304
I9
sI10305
I5
sI10306
I7
sI10307
I15
sI10308
I6
sI10309
I4
sI10310
I6
sI10312
I3
sI10314
I5
sI11354
I5
sI11355
I4
sI11356
I11
sI11357
I5
sI11358
I5
sI11360
I3
sI11361
I5
sI11362
I4
sI11363
I7
sI11364
I3
sI11365
I3
sI11366
I7
sI11367
I6
sI11368
I6
sI11369
I7
sI11370
I3
sI11372
I9
sI11373
I4
sI11374
I8
sI11375
I9
sI11377
I8
sI11378
I6
sI11379
I4
sI11385
I7
sI11411
I17
sI11412
I4
sI11413
I4
sI11414
I4
sI11415
I16
sI11416
I8
sI11417
I5
sI11418
I7
sI11419
I5
sI11420
I5
sI11421
I8
sI11422
I2
sI11423
I6
sI11426
I3
sI11427
I2
sI11428
I3
sI11429
I3
sI11430
I0
sI11432
I6
sI11433
I5
sI11434
I5
sI11435
I8
sI11436
I5
sI10451
I10
sI10452
I14
sI10453
I8
sI10454
I5
sI10455
I7
sI10456
I7
sI10457
I9
sI10458
I10
sI10459
I9
sI10460
I6
sI10461
I6
sI10462
I4
sI10463
I10
sI10465
I6
sI10466
I4
sI10467
I10
sI10468
I7
sI10469
I5
sI10470
I8
sI10471
I10
sI10472
I10
sI10473
I5
sI10474
I4
sI10475
I1
sI11004
I7
sI11005
I1
sI10001
I60
sI10002
I26
sI10003
I39
sI10004
I93
sI10005
I64
sI10006
I106
sI10007
I66
sI10009
I37
sI10010
I26
sI10011
I33
sI10012
I66
sI10013
I65
sI10014
I55
sI10016
I38
sI10017
I38
sI10018
I67
sI10019
I53
sI10021
I19
sI10022
I35
sI10023
I22
sI10024
I18
sI10025
I19
sI10026
I34
sI10027
I24
sI10028
I16
sI10029
I16
sI10030
I19
sI10031
I27
sI10032
I33
sI10033
I22
sI10034
I34
sI10035
I18
sI10036
I59
sI10037
I13
sI10038
I44
sI10039
I18
sI10040
I38
sI10044
I2
sI10069
I10
sI11101
I25
sI11102
I13
sI11103
I18
sI11104
I16
sI11105
I14
sI11106
I24
sI10128
I16
sI11691
I3
sI11692
I6
sI11693
I24
sI11694
I7
sI11697
I1
sI10162
I2
sI11201
I24
sI11203
I7
sI11204
I4
sI11205
I22
sI11206
I18
sI11207
I6
sI11208
I7
sI11209
I11
sI11210
I4
sI11211
I24
sI11212
I3
sI11213
I8
sI11214
I4
sI11215
I18
sI11216
I25
sI11217
I36
sI11218
I14
sI11219
I3
sI11220
I8
sI11221
I11
sI11222
I28
sI11223
I12
sI11224
I6
sI11225
I18
sI11226
I14
sI11228
I3
sI11229
I4
sI11230
I6
sI11231
I19
sI11232
I15
sI11233
I9
sI11234
I6
sI11235
I10
sI11236
I3
sI11237
I19
sI11238
I33
sI11239
I3
s.