(dp0
S'10065'
p1
I4641
sS'10069'
p2
I263
sS'10453'
p3
I3944
sS'10452'
p4
I5222
sS'10451'
p5
I3141
sS'10457'
p6
I4724
sS'10456'
p7
I4482
sS'10455'
p8
I1777
sS'10454'
p9
I1378
sS'10459'
p10
I3007
sS'10458'
p11
I4866
sS'11232'
p12
I2972
sS'10103'
p13
I2
sS'11233'
p14
I4076
sS'11385'
p15
I5465
sS'11234'
p16
I3833
sS'11235'
p17
I4006
sS'11237'
p18
I6655
sS'11218'
p19
I4530
sS'10282'
p20
I259
sS'10280'
p21
I666
sS'10119'
p22
I4
sS'10115'
p23
I0
sS'10112'
p24
I2
sS'10110'
p25
I0
sS'10111'
p26
I3
sS'11372'
p27
I4777
sS'11109'
p28
I340
sS'11379'
p29
I1169
sS'11378'
p30
I1500
sS'11102'
p31
I3202
sS'11103'
p32
I4974
sS'11377'
p33
I5197
sS'11101'
p34
I3998
sS'11106'
p35
I5123
sS'11370'
p36
I637
sS'11104'
p37
I2440
sS'10199'
p38
I0
sS'11375'
p39
I3508
sS'11374'
p40
I1893
sS'11229'
p41
I3352
sS'10040'
p42
I11100
sS'11371'
p43
I1
sS'11228'
p44
I1101
sS'10044'
p45
I181
sS'11201'
p46
I8647
sS'11203'
p47
I3516
sS'10128'
p48
I6188
sS'11205'
p49
I5227
sS'11204'
p50
I2218
sS'11207'
p51
I3701
sS'11206'
p52
I8995
sS'11209'
p53
I4793
sS'11208'
p54
I3910
sS'11105'
p55
I2822
sS'11225'
p56
I5757
sS'11224'
p57
I1636
sS'11368'
p58
I3524
sS'11369'
p59
I1735
sS'11366'
p60
I1913
sS'11223'
p61
I3676
sS'11364'
p62
I748
sS'11365'
p63
I912
sS'11362'
p64
I402
sS'11363'
p65
I260
sS'11360'
p66
I372
sS'11222'
p67
I5703
sS'11221'
p68
I6782
sS'11220'
p69
I5529
sS'11212'
p70
I2149
sS'11213'
p71
I3666
sS'11210'
p72
I2007
sS'11211'
p73
I16180
sS'10039'
p74
I2590
sS'10038'
p75
I4914
sS'11214'
p76
I2601
sS'11215'
p77
I7595
sS'10035'
p78
I4138
sS'10034'
p79
I10777
sS'10037'
p80
I1714
sS'10036'
p81
I8281
sS'10031'
p82
I10933
sS'10030'
p83
I3526
sS'10033'
p84
I8398
sS'10032'
p85
I12499
sS'11359'
p86
I0
sS'11358'
p87
I1261
sS'11005'
p88
I14
sS'11004'
p89
I528
sS'11697'
p90
I24
sS'11351'
p91
I0
sS'11357'
p92
I1131
sS'11356'
p93
I1406
sS'11355'
p94
I2322
sS'11354'
p95
I1498
sS'11216'
p96
I8030
sS'11451'
p97
I0
sS'11217'
p98
I8417
sS'10309'
p99
I877
sS'10308'
p100
I1137
sS'10307'
p101
I817
sS'10306'
p102
I1927
sS'10305'
p103
I1540
sS'10304'
p104
I2065
sS'10303'
p105
I949
sS'10302'
p106
I986
sS'10301'
p107
I1960
sS'10028'
p108
I5629
sS'10029'
p109
I9333
sS'10026'
p110
I7614
sS'10027'
p111
I9278
sS'10024'
p112
I6807
sS'10025'
p113
I11778
sS'10022'
p114
I6518
sS'10023'
p115
I7256
sS'10020'
p116
I60
sS'10021'
p117
I4774
sS'11429'
p118
I475
sS'11219'
p119
I2075
sS'10169'
p120
I0
sS'10003'
p121
I13907
sS'11230'
p122
I3690
sS'11428'
p123
I485
sS'11421'
p124
I2103
sS'11420'
p125
I1796
sS'11423'
p126
I1297
sS'11422'
p127
I663
sS'11425'
p128
I0
sS'11424'
p129
I0
sS'11427'
p130
I454
sS'11426'
p131
I430
sS'10152'
p132
I0
sS'10153'
p133
I8
sS'10154'
p134
I0
sS'10310'
p135
I1933
sS'10311'
p136
I0
sS'10312'
p137
I1295
sS'10314'
p138
I2290
sS'11231'
p139
I4433
sS'10162'
p140
I46
sS'11238'
p141
I11906
sS'11239'
p142
I127
sS'10019'
p143
I11645
sS'10018'
p144
I3013
sS'10271'
p145
I0
sS'10013'
p146
I8787
sS'10012'
p147
I9426
sS'10011'
p148
I11001
sS'10010'
p149
I4858
sS'10017'
p150
I4715
sS'10016'
p151
I10684
sS'11236'
p152
I2124
sS'10014'
p153
I9654
sS'11693'
p154
I874
sS'11432'
p155
I2485
sS'11433'
p156
I1110
sS'11430'
p157
I9
sS'11436'
p158
I450
sS'11694'
p159
I1154
sS'11434'
p160
I1795
sS'11435'
p161
I1942
sS'10004'
p162
I1261
sS'10005'
p163
I2345
sS'10006'
p164
I1514
sS'10007'
p165
I2688
sS'10001'
p166
I7141
sS'10002'
p167
I13062
sS'10168'
p168
I0
sS'10167'
p169
I0
sS'11692'
p170
I436
sS'10165'
p171
I0
sS'10009'
p172
I12757
sS'10279'
p173
I0
sS'10278'
p174
I0
sS'10475'
p175
I356
sS'10474'
p176
I587
sS'10471'
p177
I1024
sS'10470'
p178
I741
sS'10473'
p179
I1745
sS'10472'
p180
I4626
sS'11691'
p181
I1055
sS'11361'
p182
I883
sS'11226'
p183
I8854
sS'10075'
p184
I2774
sS'10170'
p185
I0
sS'10171'
p186
I0
sS'10172'
p187
I0
sS'10173'
p188
I0
sS'10174'
p189
I0
sS'10177'
p190
I0
sS'10466'
p191
I1913
sS'10467'
p192
I6964
sS'10464'
p193
I840
sS'10465'
p194
I1746
sS'10462'
p195
I2683
sS'10463'
p196
I3896
sS'10460'
p197
I2435
sS'10461'
p198
I2221
sS'10468'
p199
I4013
sS'10469'
p200
I2298
sS'11411'
p201
I1477
sS'11412'
p202
I1142
sS'11413'
p203
I926
sS'11414'
p204
I1008
sS'11415'
p205
I1961
sS'11416'
p206
I1272
sS'11417'
p207
I1243
sS'11418'
p208
I1972
sS'11419'
p209
I1955
sS'11367'
p210
I1352
sS'11373'
p211
I2898
s.